	.cpu cortex-m4
	.eabi_attribute 20, 1
	.eabi_attribute 21, 1
	.eabi_attribute 23, 3
	.eabi_attribute 24, 1
	.eabi_attribute 25, 1
	.eabi_attribute 26, 1
	.eabi_attribute 30, 4
	.eabi_attribute 34, 1
	.eabi_attribute 18, 4
	.file	"GUI_Paint.c"
	.text
.Ltext0:
	.section	.text.Paint_NewImage,"ax",%progbits
	.align	1
	.global	Paint_NewImage
	.syntax unified
	.thumb
	.thumb_func
	.fpu softvfp
	.type	Paint_NewImage, %function
Paint_NewImage:
.LVL0:
.LFB0:
	.file 1 "C:\\Users\\berka\\Desktop\\BORDA\\Proje\\DeviceDownload\\nRF5SDK1702d674dde\\nRF5_SDK_17.0.2_d674dde\\examples\\ble_peripheral\\electronic_shelf_label\\Libraries\\gui\\GUI_Paint.c"
	.loc 1 20 1 view -0
	@ args = 4, pretend = 0, frame = 0
	@ frame_needed = 0, uses_anonymous_args = 0
	.loc 1 21 5 view .LVU1
	.loc 1 22 5 view .LVU2
	.loc 1 20 1 is_stmt 0 view .LVU3
	push	{r4, lr}
.LCFI0:
	.loc 1 22 17 view .LVU4
	ldr	r4, .L12
	str	r0, [r4]
	.loc 1 23 5 is_stmt 1 view .LVU5
	.loc 1 24 5 view .LVU6
	.loc 1 26 17 is_stmt 0 view .LVU7
	ldrh	r0, [sp, #8]
.LVL1:
	.loc 1 26 17 view .LVU8
	strh	r0, [r4, #12]	@ movhi
	.loc 1 27 21 view .LVU9
	tst	r1, #7
	lsr	r0, r1, #3
	it	ne
	addne	r0, r0, #1
	strh	r0, [r4, #18]	@ movhi
	.loc 1 33 18 view .LVU10
	movs	r0, #0
	.loc 1 24 23 view .LVU11
	strh	r1, [r4, #8]	@ movhi
	.loc 1 25 5 is_stmt 1 view .LVU12
	.loc 1 25 24 is_stmt 0 view .LVU13
	strh	r2, [r4, #10]	@ movhi
	.loc 1 26 5 is_stmt 1 view .LVU14
	.loc 1 27 5 view .LVU15
	.loc 1 28 5 view .LVU16
	.loc 1 28 22 is_stmt 0 view .LVU17
	strh	r2, [r4, #20]	@ movhi
	.loc 1 32 5 is_stmt 1 view .LVU18
	.loc 1 32 18 is_stmt 0 view .LVU19
	strh	r3, [r4, #14]	@ movhi
	.loc 1 33 5 is_stmt 1 view .LVU20
	.loc 1 33 18 is_stmt 0 view .LVU21
	strh	r0, [r4, #16]	@ movhi
	.loc 1 35 5 is_stmt 1 view .LVU22
	.loc 1 35 7 is_stmt 0 view .LVU23
	cbz	r3, .L3
	.loc 1 35 27 discriminator 1 view .LVU24
	cmp	r3, #180
	bne	.L4
.L3:
	.loc 1 36 9 is_stmt 1 view .LVU25
	.loc 1 36 21 is_stmt 0 view .LVU26
	strh	r1, [r4, #4]	@ movhi
	.loc 1 37 9 is_stmt 1 view .LVU27
	.loc 1 37 22 is_stmt 0 view .LVU28
	strh	r2, [r4, #6]	@ movhi
.L1:
	.loc 1 42 1 view .LVU29
	pop	{r4, pc}
.LVL2:
.L4:
	.loc 1 39 9 is_stmt 1 view .LVU30
	.loc 1 39 21 is_stmt 0 view .LVU31
	strh	r2, [r4, #4]	@ movhi
	.loc 1 40 9 is_stmt 1 view .LVU32
	.loc 1 40 22 is_stmt 0 view .LVU33
	strh	r1, [r4, #6]	@ movhi
	.loc 1 42 1 view .LVU34
	b	.L1
.L13:
	.align	2
.L12:
	.word	.LANCHOR0
.LFE0:
	.size	Paint_NewImage, .-Paint_NewImage
	.section	.text.Paint_SelectImage,"ax",%progbits
	.align	1
	.global	Paint_SelectImage
	.syntax unified
	.thumb
	.thumb_func
	.fpu softvfp
	.type	Paint_SelectImage, %function
Paint_SelectImage:
.LVL3:
.LFB1:
	.loc 1 50 1 is_stmt 1 view -0
	@ args = 0, pretend = 0, frame = 0
	@ frame_needed = 0, uses_anonymous_args = 0
	@ link register save eliminated.
	.loc 1 51 5 view .LVU36
	.loc 1 51 17 is_stmt 0 view .LVU37
	ldr	r3, .L15
	str	r0, [r3]
	.loc 1 52 1 view .LVU38
	bx	lr
.L16:
	.align	2
.L15:
	.word	.LANCHOR0
.LFE1:
	.size	Paint_SelectImage, .-Paint_SelectImage
	.section	.text.Paint_SetRotate,"ax",%progbits
	.align	1
	.global	Paint_SetRotate
	.syntax unified
	.thumb
	.thumb_func
	.fpu softvfp
	.type	Paint_SetRotate, %function
Paint_SetRotate:
.LVL4:
.LFB2:
	.loc 1 60 1 is_stmt 1 view -0
	@ args = 0, pretend = 0, frame = 0
	@ frame_needed = 0, uses_anonymous_args = 0
	@ link register save eliminated.
	.loc 1 61 5 view .LVU40
	.loc 1 61 7 is_stmt 0 view .LVU41
	cbz	r0, .L18
	.loc 1 61 27 discriminator 1 view .LVU42
	cmp	r0, #90
	beq	.L18
	.loc 1 61 50 discriminator 2 view .LVU43
	cmp	r0, #180
	beq	.L18
	.loc 1 61 74 discriminator 3 view .LVU44
	cmp	r0, #270
	bne	.L17
.L18:
	.loc 1 63 9 is_stmt 1 view .LVU45
	.loc 1 63 22 is_stmt 0 view .LVU46
	ldr	r3, .L29
	strh	r0, [r3, #14]	@ movhi
.L17:
	.loc 1 67 1 view .LVU47
	bx	lr
.L30:
	.align	2
.L29:
	.word	.LANCHOR0
.LFE2:
	.size	Paint_SetRotate, .-Paint_SetRotate
	.section	.text.Paint_SetMirroring,"ax",%progbits
	.align	1
	.global	Paint_SetMirroring
	.syntax unified
	.thumb
	.thumb_func
	.fpu softvfp
	.type	Paint_SetMirroring, %function
Paint_SetMirroring:
.LVL5:
.LFB3:
	.loc 1 75 1 is_stmt 1 view -0
	@ args = 0, pretend = 0, frame = 0
	@ frame_needed = 0, uses_anonymous_args = 0
	@ link register save eliminated.
	.loc 1 76 5 view .LVU49
	.loc 1 76 7 is_stmt 0 view .LVU50
	cmp	r0, #3
	.loc 1 79 9 is_stmt 1 view .LVU51
	.loc 1 79 22 is_stmt 0 view .LVU52
	itt	ls
	ldrls	r3, .L33
	strhls	r0, [r3, #16]	@ movhi
	.loc 1 83 5 is_stmt 1 view .LVU53
	.loc 1 84 1 is_stmt 0 view .LVU54
	bx	lr
.L34:
	.align	2
.L33:
	.word	.LANCHOR0
.LFE3:
	.size	Paint_SetMirroring, .-Paint_SetMirroring
	.section	.text.Paint_SetPixel,"ax",%progbits
	.align	1
	.global	Paint_SetPixel
	.syntax unified
	.thumb
	.thumb_func
	.fpu softvfp
	.type	Paint_SetPixel, %function
Paint_SetPixel:
.LVL6:
.LFB4:
	.loc 1 94 1 is_stmt 1 view -0
	@ args = 0, pretend = 0, frame = 0
	@ frame_needed = 0, uses_anonymous_args = 0
	.loc 1 95 2 view .LVU56
	.loc 1 96 2 view .LVU57
	.loc 1 97 2 view .LVU58
	.loc 1 98 5 view .LVU59
	.loc 1 98 22 is_stmt 0 view .LVU60
	ldr	r3, .L53
	.loc 1 94 1 view .LVU61
	push	{r4, r5, lr}
.LCFI1:
	.loc 1 98 7 view .LVU62
	ldrh	r4, [r3, #4]
	cmp	r4, r0
	bcc	.L35
	.loc 1 98 29 discriminator 1 view .LVU63
	ldrh	r4, [r3, #6]
	cmp	r4, r1
	bcc	.L35
.LVL7:
.LBB4:
.LBI4:
	.loc 1 93 6 is_stmt 1 view .LVU64
.LBB5:
	.loc 1 104 5 view .LVU65
	.loc 1 104 17 is_stmt 0 view .LVU66
	ldrh	r4, [r3, #14]
	.loc 1 104 5 view .LVU67
	cmp	r4, #180
	beq	.L37
	bhi	.L38
	cbz	r4, .L39
	cmp	r4, #90
	beq	.L40
.LVL8:
.L35:
	.loc 1 104 5 view .LVU68
.LBE5:
.LBE4:
	.loc 1 154 1 view .LVU69
	pop	{r4, r5, pc}
.LVL9:
.L38:
.LBB7:
.LBB6:
	.loc 1 104 5 view .LVU70
	cmp	r4, #270
	bne	.L35
	.loc 1 118 9 is_stmt 1 view .LVU71
.LVL10:
	.loc 1 119 9 view .LVU72
	.loc 1 119 11 is_stmt 0 view .LVU73
	ldrh	r4, [r3, #10]
	subs	r4, r4, #1
	subs	r4, r4, r0
.LVL11:
	.loc 1 120 9 is_stmt 1 view .LVU74
	mov	r0, r1
.LVL12:
	.loc 1 119 11 is_stmt 0 view .LVU75
	uxth	r1, r4
.LVL13:
	.loc 1 120 9 view .LVU76
	b	.L39
.LVL14:
.L40:
	.loc 1 110 9 is_stmt 1 view .LVU77
	.loc 1 110 11 is_stmt 0 view .LVU78
	ldrh	r4, [r3, #8]
	subs	r4, r4, #1
	subs	r4, r4, r1
.LVL15:
	.loc 1 111 9 is_stmt 1 view .LVU79
	.loc 1 112 9 view .LVU80
	mov	r1, r0
.LVL16:
	.loc 1 110 11 is_stmt 0 view .LVU81
	uxth	r0, r4
.LVL17:
.L39:
	.loc 1 126 5 is_stmt 1 view .LVU82
	ldrh	r4, [r3, #16]
	cmp	r4, #3
	bhi	.L35
	tbb	[pc, r4]
.L43:
	.byte	(.L46-.L43)/2
	.byte	(.L45-.L43)/2
	.byte	(.L51-.L43)/2
	.byte	(.L42-.L43)/2
.LVL18:
	.p2align 1
.L37:
	.loc 1 114 9 view .LVU83
	.loc 1 114 11 is_stmt 0 view .LVU84
	ldrh	r4, [r3, #8]
	subs	r4, r4, #1
	subs	r0, r4, r0
.LVL19:
	.loc 1 115 11 view .LVU85
	ldrh	r4, [r3, #10]
	subs	r4, r4, #1
	subs	r1, r4, r1
.LVL20:
	.loc 1 114 11 view .LVU86
	uxth	r0, r0
.LVL21:
	.loc 1 115 9 is_stmt 1 view .LVU87
	.loc 1 115 11 is_stmt 0 view .LVU88
	uxth	r1, r1
.LVL22:
	.loc 1 116 9 is_stmt 1 view .LVU89
	b	.L39
.L45:
	.loc 1 130 9 view .LVU90
	.loc 1 130 11 is_stmt 0 view .LVU91
	ldrh	r4, [r3, #8]
	subs	r4, r4, #1
	subs	r0, r4, r0
.LVL23:
	.loc 1 130 11 view .LVU92
	uxth	r0, r0
.LVL24:
	.loc 1 131 9 is_stmt 1 view .LVU93
.L46:
	.loc 1 143 5 view .LVU94
	.loc 1 143 7 is_stmt 0 view .LVU95
	ldrh	r4, [r3, #8]
	cmp	r4, r0
	bcc	.L35
	.loc 1 143 30 view .LVU96
	ldrh	r4, [r3, #10]
	cmp	r4, r1
	bcc	.L35
	.loc 1 148 5 is_stmt 1 view .LVU97
.LVL25:
	.loc 1 149 5 view .LVU98
	.loc 1 148 30 is_stmt 0 view .LVU99
	ldrh	r5, [r3, #18]
	.loc 1 148 14 view .LVU100
	ubfx	r4, r0, #3, #16
	.loc 1 148 19 view .LVU101
	mla	r1, r1, r5, r4
.LVL26:
	.loc 1 151 50 view .LVU102
	and	r0, r0, #7
.LVL27:
	.loc 1 149 24 view .LVU103
	ldr	r4, [r3]
.LVL28:
	.loc 1 150 5 is_stmt 1 view .LVU104
	.loc 1 151 44 is_stmt 0 view .LVU105
	movs	r3, #128
	asr	r0, r3, r0
	.loc 1 151 35 view .LVU106
	sxtb	r0, r0
	ldrsb	r3, [r4, r1]
	.loc 1 150 7 view .LVU107
	cbnz	r2, .L47
	.loc 1 151 9 is_stmt 1 view .LVU108
	.loc 1 151 35 is_stmt 0 view .LVU109
	bic	r3, r3, r0
.L52:
	.loc 1 153 27 view .LVU110
	strb	r3, [r4, r1]
.LVL29:
	.loc 1 153 27 view .LVU111
	b	.L35
.LVL30:
.L42:
	.loc 1 136 9 is_stmt 1 view .LVU112
	.loc 1 136 11 is_stmt 0 view .LVU113
	ldrh	r4, [r3, #8]
	subs	r4, r4, #1
	subs	r0, r4, r0
.LVL31:
	.loc 1 136 11 view .LVU114
	uxth	r0, r0
.L51:
.LVL32:
	.loc 1 137 9 is_stmt 1 view .LVU115
	.loc 1 137 11 is_stmt 0 view .LVU116
	ldrh	r4, [r3, #10]
	subs	r4, r4, #1
	subs	r1, r4, r1
.LVL33:
	.loc 1 137 11 view .LVU117
	uxth	r1, r1
.LVL34:
	.loc 1 138 9 is_stmt 1 view .LVU118
	b	.L46
.LVL35:
.L47:
	.loc 1 153 9 view .LVU119
	.loc 1 153 35 is_stmt 0 view .LVU120
	orrs	r3, r3, r0
	b	.L52
.L54:
	.align	2
.L53:
	.word	.LANCHOR0
.LBE6:
.LBE7:
.LFE4:
	.size	Paint_SetPixel, .-Paint_SetPixel
	.section	.text.Paint_Clear,"ax",%progbits
	.align	1
	.global	Paint_Clear
	.syntax unified
	.thumb
	.thumb_func
	.fpu softvfp
	.type	Paint_Clear, %function
Paint_Clear:
.LVL36:
.LFB5:
	.loc 1 162 1 is_stmt 1 view -0
	@ args = 0, pretend = 0, frame = 0
	@ frame_needed = 0, uses_anonymous_args = 0
	.loc 1 163 2 view .LVU122
	.loc 1 164 2 view .LVU123
	.loc 1 165 5 view .LVU124
	.loc 1 162 1 is_stmt 0 view .LVU125
	push	{r4, r5, r6, r7, lr}
.LCFI2:
	.loc 1 165 26 view .LVU126
	ldr	r1, .L60
	.loc 1 165 5 view .LVU127
	movs	r3, #0
.LVL37:
.L56:
	.loc 1 165 17 is_stmt 1 discriminator 1 view .LVU128
	.loc 1 165 5 is_stmt 0 discriminator 1 view .LVU129
	ldrh	r4, [r1, #20]
	uxth	r2, r3
	cmp	r4, r2
	bhi	.L59
	.loc 1 171 1 view .LVU130
	pop	{r4, r5, r6, r7, pc}
.LVL38:
.L57:
	.loc 1 167 13 is_stmt 1 discriminator 3 view .LVU131
	.loc 1 168 13 discriminator 3 view .LVU132
	.loc 1 168 31 is_stmt 0 discriminator 3 view .LVU133
	ldr	r4, [r1]
	.loc 1 167 22 discriminator 3 view .LVU134
	uxth	r7, r2
	.loc 1 168 31 discriminator 3 view .LVU135
	mla	r4, r5, r6, r4
	adds	r2, r2, #1
.LVL39:
	.loc 1 168 31 discriminator 3 view .LVU136
	strb	r0, [r4, r7]
	.loc 1 166 42 is_stmt 1 discriminator 3 view .LVU137
.LVL40:
.L58:
	.loc 1 166 21 discriminator 1 view .LVU138
	.loc 1 166 30 is_stmt 0 discriminator 1 view .LVU139
	ldrh	r5, [r1, #18]
	.loc 1 166 9 discriminator 1 view .LVU140
	uxth	r4, r2
	cmp	r5, r4
	bhi	.L57
	.loc 1 165 39 is_stmt 1 discriminator 2 view .LVU141
.LVL41:
	.loc 1 165 39 is_stmt 0 discriminator 2 view .LVU142
	adds	r3, r3, #1
.LVL42:
	.loc 1 165 39 discriminator 2 view .LVU143
	b	.L56
.LVL43:
.L59:
	.loc 1 165 39 discriminator 2 view .LVU144
	movs	r2, #0
	.loc 1 167 25 view .LVU145
	uxth	r6, r3
	b	.L58
.L61:
	.align	2
.L60:
	.word	.LANCHOR0
.LFE5:
	.size	Paint_Clear, .-Paint_Clear
	.section	.text.Paint_ClearWindows,"ax",%progbits
	.align	1
	.global	Paint_ClearWindows
	.syntax unified
	.thumb
	.thumb_func
	.fpu softvfp
	.type	Paint_ClearWindows, %function
Paint_ClearWindows:
.LVL44:
.LFB6:
	.loc 1 182 1 is_stmt 1 view -0
	@ args = 4, pretend = 0, frame = 0
	@ frame_needed = 0, uses_anonymous_args = 0
	.loc 1 182 1 is_stmt 0 view .LVU147
	push	{r4, r5, r6, r7, r8, lr}
.LCFI3:
	mov	r8, r2
	ldrh	r2, [sp, #24]
.LVL45:
	.loc 1 183 5 is_stmt 1 view .LVU148
	.loc 1 184 5 view .LVU149
	.loc 1 182 1 is_stmt 0 view .LVU150
	mov	r7, r0
	mov	r4, r1
.LVL46:
	.loc 1 182 1 view .LVU151
	mov	r6, r3
.LVL47:
.L63:
	.loc 1 184 22 is_stmt 1 discriminator 1 view .LVU152
	.loc 1 184 5 is_stmt 0 discriminator 1 view .LVU153
	cmp	r4, r6
	bcc	.L66
	.loc 1 189 1 view .LVU154
	pop	{r4, r5, r6, r7, r8, pc}
.LVL48:
.L64:
	.loc 1 186 13 is_stmt 1 discriminator 3 view .LVU155
	mov	r0, r5
	mov	r1, r4
	bl	Paint_SetPixel
.LVL49:
	.loc 1 185 36 discriminator 3 view .LVU156
	.loc 1 185 37 is_stmt 0 discriminator 3 view .LVU157
	adds	r5, r5, #1
.LVL50:
	.loc 1 185 37 discriminator 3 view .LVU158
	uxth	r5, r5
.LVL51:
.L65:
	.loc 1 185 26 is_stmt 1 discriminator 1 view .LVU159
	.loc 1 185 9 is_stmt 0 discriminator 1 view .LVU160
	cmp	r5, r8
	bcc	.L64
	.loc 1 184 32 is_stmt 1 discriminator 2 view .LVU161
	.loc 1 184 33 is_stmt 0 discriminator 2 view .LVU162
	adds	r4, r4, #1
.LVL52:
	.loc 1 184 33 discriminator 2 view .LVU163
	uxth	r4, r4
.LVL53:
	.loc 1 184 33 discriminator 2 view .LVU164
	b	.L63
.LVL54:
.L66:
	.loc 1 185 16 view .LVU165
	mov	r5, r7
	b	.L65
.LFE6:
	.size	Paint_ClearWindows, .-Paint_ClearWindows
	.section	.text.Paint_DrawPoint,"ax",%progbits
	.align	1
	.global	Paint_DrawPoint
	.syntax unified
	.thumb
	.thumb_func
	.fpu softvfp
	.type	Paint_DrawPoint, %function
Paint_DrawPoint:
.LVL55:
.LFB7:
	.loc 1 201 1 is_stmt 1 view -0
	@ args = 4, pretend = 0, frame = 8
	@ frame_needed = 0, uses_anonymous_args = 0
	.loc 1 202 6 view .LVU167
	.loc 1 203 5 view .LVU168
	.loc 1 201 1 is_stmt 0 view .LVU169
	push	{r0, r1, r2, r4, r5, r6, r7, r8, r9, r10, fp, lr}
.LCFI4:
	.loc 1 201 1 view .LVU170
	mov	r4, r3
	.loc 1 203 23 view .LVU171
	ldr	r3, .L80
.LVL56:
	.loc 1 201 1 view .LVU172
	mov	r5, r1
	.loc 1 203 8 view .LVU173
	ldrh	r1, [r3, #4]
.LVL57:
	.loc 1 203 8 view .LVU174
	cmp	r1, r0
	.loc 1 201 1 view .LVU175
	mov	r6, r0
	.loc 1 203 8 view .LVU176
	bcc	.L67
	.loc 1 203 30 discriminator 1 view .LVU177
	ldrh	r3, [r3, #6]
	cmp	r3, r5
	bcc	.L67
.LVL58:
.LBB10:
.LBI10:
	.loc 1 199 6 is_stmt 1 view .LVU178
.LBB11:
	.loc 1 209 5 view .LVU179
	.loc 1 209 8 is_stmt 0 view .LVU180
	ldrb	r3, [sp, #48]	@ zero_extendqisi2
	cmp	r3, #1
	bne	.L76
	.loc 1 214 17 view .LVU181
	uxth	r3, r4
	.loc 1 210 41 view .LVU182
	lsls	r7, r4, #1
	.loc 1 214 17 view .LVU183
	str	r3, [sp]
	.loc 1 210 53 view .LVU184
	subs	r7, r7, #1
	mov	r8, #0
	.loc 1 214 17 view .LVU185
	subs	r3, r0, r4
.LVL59:
.L71:
	.loc 1 210 37 view .LVU186
	sxth	fp, r8
	.loc 1 210 9 view .LVU187
	cmp	fp, r7
	uxth	r9, r8
.LVL60:
	.loc 1 210 28 is_stmt 1 view .LVU188
	.loc 1 210 9 is_stmt 0 view .LVU189
	blt	.L77
.LVL61:
.L67:
	.loc 1 210 9 view .LVU190
.LBE11:
.LBE10:
	.loc 1 224 1 view .LVU191
	add	sp, sp, #12
.LCFI5:
	@ sp needed
	pop	{r4, r5, r6, r7, r8, r9, r10, fp, pc}
.LVL62:
.L73:
.LCFI6:
.LBB13:
.LBB12:
	.loc 1 212 17 is_stmt 1 view .LVU192
	.loc 1 212 27 is_stmt 0 view .LVU193
	add	r0, r6, fp
	.loc 1 212 38 view .LVU194
	subs	r0, r0, r4
	.loc 1 212 19 view .LVU195
	cmp	r0, #0
	blt	.L72
	.loc 1 212 64 view .LVU196
	adds	r0, r5, r1
	.loc 1 212 75 view .LVU197
	subs	r0, r0, r4
	.loc 1 212 54 view .LVU198
	cmp	r0, #0
	blt	.L72
	str	r3, [sp, #4]
	.loc 1 214 17 is_stmt 1 view .LVU199
	ldr	r3, [sp]
	subs	r0, r5, r3
	uxth	r10, r1
	uxtah	r1, r0, r1
.LVL63:
	.loc 1 214 17 is_stmt 0 view .LVU200
	uxth	r1, r1
	uxth	r0, r9
	bl	Paint_SetPixel
.LVL64:
	.loc 1 211 62 is_stmt 1 view .LVU201
	add	r1, r10, #1
	ldr	r3, [sp, #4]
	sxth	r1, r1
.LVL65:
.L74:
	.loc 1 211 32 view .LVU202
	.loc 1 211 13 is_stmt 0 view .LVU203
	cmp	r1, r7
	blt	.L73
.L72:
	.loc 1 210 58 is_stmt 1 view .LVU204
.LVL66:
	.loc 1 210 58 is_stmt 0 view .LVU205
	add	r8, r8, #1
.LVL67:
	.loc 1 210 58 view .LVU206
	b	.L71
.LVL68:
.L77:
	.loc 1 211 27 view .LVU207
	movs	r1, #0
	.loc 1 214 17 view .LVU208
	add	r9, r9, r3
	b	.L74
.LVL69:
.L78:
	.loc 1 220 17 view .LVU209
	add	r7, r7, r6
	.loc 1 219 27 view .LVU210
	movs	r1, #0
	.loc 1 220 17 view .LVU211
	uxth	r7, r7
.L75:
.LVL70:
	.loc 1 220 17 is_stmt 1 view .LVU212
	uxth	r9, r1
	uxtah	r1, r5, r1
.LVL71:
	.loc 1 220 17 is_stmt 0 view .LVU213
	uxth	r1, r1
	mov	r0, r7
	bl	Paint_SetPixel
.LVL72:
	.loc 1 219 55 is_stmt 1 view .LVU214
	add	r1, r9, #1
	sxth	r1, r1
.LVL73:
	.loc 1 219 32 view .LVU215
	.loc 1 219 13 is_stmt 0 view .LVU216
	cmp	r4, r1
	bgt	.L75
	.loc 1 218 51 is_stmt 1 view .LVU217
.LVL74:
	.loc 1 218 51 is_stmt 0 view .LVU218
	add	r8, r8, #1
.LVL75:
.L70:
	.loc 1 218 9 view .LVU219
	cmp	r4, r8
	uxth	r7, r8
.LVL76:
	.loc 1 218 28 is_stmt 1 view .LVU220
	.loc 1 218 9 is_stmt 0 view .LVU221
	bgt	.L78
	b	.L67
.LVL77:
.L76:
	.loc 1 218 9 view .LVU222
	mov	r8, #0
	.loc 1 220 17 view .LVU223
	subs	r5, r5, #1
.LVL78:
	.loc 1 220 17 view .LVU224
	subs	r6, r0, #1
	b	.L70
.L81:
	.align	2
.L80:
	.word	.LANCHOR0
.LBE12:
.LBE13:
.LFE7:
	.size	Paint_DrawPoint, .-Paint_DrawPoint
	.section	.text.Paint_DrawLine,"ax",%progbits
	.align	1
	.global	Paint_DrawLine
	.syntax unified
	.thumb
	.thumb_func
	.fpu softvfp
	.type	Paint_DrawLine, %function
Paint_DrawLine:
.LVL79:
.LFB8:
	.loc 1 237 1 is_stmt 1 view -0
	@ args = 12, pretend = 0, frame = 32
	@ frame_needed = 0, uses_anonymous_args = 0
	.loc 1 237 6 view .LVU226
	.loc 1 238 5 view .LVU227
	.loc 1 239 5 view .LVU228
	.loc 1 240 5 view .LVU229
	.loc 1 241 5 view .LVU230
	.loc 1 242 5 view .LVU231
	.loc 1 237 1 is_stmt 0 view .LVU232
	push	{r4, r5, r6, r7, r8, r9, r10, fp, lr}
.LCFI7:
	mov	r6, r2
	.loc 1 242 23 view .LVU233
	ldr	r2, .L93
.LVL80:
	.loc 1 237 1 view .LVU234
	sub	sp, sp, #44
.LCFI8:
	.loc 1 242 23 view .LVU235
	ldrh	r4, [r2, #4]
	.loc 1 237 1 view .LVU236
	mov	r7, r3
	ldrh	r3, [sp, #80]
.LVL81:
	.loc 1 237 1 view .LVU237
	str	r3, [sp, #28]
	.loc 1 242 8 view .LVU238
	cmp	r4, r0
	.loc 1 237 1 view .LVU239
	ldrb	r3, [sp, #84]	@ zero_extendqisi2
	str	r3, [sp, #12]
	mov	fp, r1
	ldrb	r3, [sp, #88]	@ zero_extendqisi2
	.loc 1 242 8 view .LVU240
	bcc	.L82
	.loc 1 242 47 discriminator 1 view .LVU241
	ldrh	r2, [r2, #6]
	.loc 1 242 30 discriminator 1 view .LVU242
	cmp	r2, r1
	bcc	.L82
	.loc 1 242 55 discriminator 2 view .LVU243
	cmp	r4, r6
	bcc	.L82
	.loc 1 243 28 view .LVU244
	cmp	r2, r7
	bcc	.L82
.LVL82:
.LBB16:
.LBI16:
	.loc 1 235 6 is_stmt 1 view .LVU245
.LBB17:
	.loc 1 248 5 view .LVU246
	.loc 1 249 5 view .LVU247
	.loc 1 250 5 view .LVU248
	.loc 1 250 46 is_stmt 0 view .LVU249
	sub	r8, r6, r0
	.loc 1 251 46 view .LVU250
	sub	r9, r7, r1
	.loc 1 250 8 view .LVU251
	cmp	r8, #0
	it	lt
	rsblt	r8, r8, #0
.LVL83:
	.loc 1 251 5 is_stmt 1 view .LVU252
	.loc 1 251 55 is_stmt 0 view .LVU253
	cmp	r9, #0
	it	lt
	rsblt	r9, r9, #0
	rsb	r2, r9, #0
	str	r2, [sp, #16]
.LVL84:
	.loc 1 254 5 is_stmt 1 view .LVU254
	.loc 1 254 33 is_stmt 0 view .LVU255
	cmp	r0, r6
	ite	cc
	movcc	r2, #1
	movcs	r2, #-1
.LVL85:
	.loc 1 254 33 view .LVU256
	str	r2, [sp, #20]
.LVL86:
	.loc 1 255 5 is_stmt 1 view .LVU257
	.loc 1 255 33 is_stmt 0 view .LVU258
	cmp	r1, r7
	ite	cc
	movcc	r2, #1
	movcs	r2, #-1
.LVL87:
	.loc 1 255 33 view .LVU259
	str	r2, [sp, #24]
.LVL88:
	.loc 1 258 5 is_stmt 1 view .LVU260
	.loc 1 258 9 is_stmt 0 view .LVU261
	sub	r5, r8, r9
.LVL89:
	.loc 1 259 5 is_stmt 1 view .LVU262
	.loc 1 259 16 is_stmt 0 view .LVU263
	movs	r4, #0
.LVL90:
.L86:
	.loc 1 261 5 is_stmt 1 view .LVU264
	.loc 1 262 9 view .LVU265
	.loc 1 264 12 is_stmt 0 view .LVU266
	ldr	r2, [sp, #12]
	.loc 1 262 19 view .LVU267
	adds	r4, r4, #1
.LVL91:
	.loc 1 264 12 view .LVU268
	cmp	r2, #1
	.loc 1 262 19 view .LVU269
	uxtb	r10, r4
.LVL92:
	.loc 1 264 9 is_stmt 1 view .LVU270
	.loc 1 264 12 is_stmt 0 view .LVU271
	bne	.L87
	.loc 1 264 63 view .LVU272
	movs	r2, #3
	udiv	r4, r10, r2
	add	r4, r4, r4, lsl #1
	sub	r4, r10, r4
	.loc 1 264 45 view .LVU273
	ands	r4, r4, #255
	bne	.L87
	.loc 1 266 13 is_stmt 1 view .LVU274
	ldr	r2, [sp, #12]
	str	r2, [sp]
	mov	r1, fp
	movs	r2, #255
	str	r3, [sp, #36]
	str	r0, [sp, #32]
	bl	Paint_DrawPoint
.LVL93:
	.loc 1 267 13 view .LVU275
	.loc 1 267 24 is_stmt 0 view .LVU276
	ldrd	r0, r3, [sp, #32]
.LVL94:
.L88:
	.loc 1 271 9 is_stmt 1 view .LVU277
	.loc 1 271 12 is_stmt 0 view .LVU278
	ldr	r2, [sp, #16]
	cmp	r2, r5, lsl #1
	bgt	.L89
	.loc 1 272 13 is_stmt 1 view .LVU279
	.loc 1 272 16 is_stmt 0 view .LVU280
	cmp	r6, r0
	beq	.L82
	.loc 1 274 13 is_stmt 1 view .LVU281
	.loc 1 275 20 is_stmt 0 view .LVU282
	ldr	r2, [sp, #20]
	add	r0, r0, r2
	sub	r5, r5, r9
.LVL95:
	.loc 1 275 13 is_stmt 1 view .LVU283
	.loc 1 275 20 is_stmt 0 view .LVU284
	uxth	r0, r0
.LVL96:
.L89:
	.loc 1 277 9 is_stmt 1 view .LVU285
	.loc 1 277 12 is_stmt 0 view .LVU286
	cmp	r8, r5, lsl #1
	blt	.L86
	.loc 1 278 13 is_stmt 1 view .LVU287
	.loc 1 278 16 is_stmt 0 view .LVU288
	cmp	r7, fp
	beq	.L82
	.loc 1 280 13 is_stmt 1 view .LVU289
	.loc 1 281 20 is_stmt 0 view .LVU290
	ldr	r2, [sp, #24]
	add	r1, fp, r2
	.loc 1 280 17 view .LVU291
	add	r5, r5, r8
.LVL97:
	.loc 1 281 13 is_stmt 1 view .LVU292
	.loc 1 281 20 is_stmt 0 view .LVU293
	uxth	fp, r1
.LVL98:
	.loc 1 281 20 view .LVU294
	b	.L86
.LVL99:
.L87:
	.loc 1 269 13 is_stmt 1 view .LVU295
	movs	r2, #1
	str	r2, [sp]
	mov	r1, fp
	ldr	r2, [sp, #28]
	str	r3, [sp, #36]
	str	r0, [sp, #32]
	.loc 1 262 19 is_stmt 0 view .LVU296
	mov	r4, r10
	.loc 1 269 13 view .LVU297
	bl	Paint_DrawPoint
.LVL100:
	.loc 1 262 19 view .LVU298
	ldrd	r0, r3, [sp, #32]
	b	.L88
.LVL101:
.L82:
	.loc 1 262 19 view .LVU299
.LBE17:
.LBE16:
	.loc 1 284 1 view .LVU300
	add	sp, sp, #44
.LCFI9:
	@ sp needed
	pop	{r4, r5, r6, r7, r8, r9, r10, fp, pc}
.LVL102:
.L94:
	.loc 1 284 1 view .LVU301
	.align	2
.L93:
	.word	.LANCHOR0
.LFE8:
	.size	Paint_DrawLine, .-Paint_DrawLine
	.section	.text.Paint_DrawRectangle,"ax",%progbits
	.align	1
	.global	Paint_DrawRectangle
	.syntax unified
	.thumb
	.thumb_func
	.fpu softvfp
	.type	Paint_DrawRectangle, %function
Paint_DrawRectangle:
.LVL103:
.LFB9:
	.loc 1 298 1 is_stmt 1 view -0
	@ args = 12, pretend = 0, frame = 0
	@ frame_needed = 0, uses_anonymous_args = 0
	.loc 1 299 2 view .LVU303
	.loc 1 300 5 view .LVU304
	.loc 1 298 1 is_stmt 0 view .LVU305
	push	{r0, r1, r2, r3, r4, r5, r6, r7, r8, r9, r10, lr}
.LCFI10:
	.loc 1 298 1 view .LVU306
	mov	r7, r3
	.loc 1 300 23 view .LVU307
	ldr	r3, .L104
.LVL104:
	.loc 1 298 1 view .LVU308
	ldrh	r8, [sp, #48]
	.loc 1 300 23 view .LVU309
	ldrh	ip, [r3, #4]
	.loc 1 298 1 view .LVU310
	ldrb	r9, [sp, #52]	@ zero_extendqisi2
	ldrb	r10, [sp, #56]	@ zero_extendqisi2
	.loc 1 300 8 view .LVU311
	cmp	ip, r0
	.loc 1 298 1 view .LVU312
	mov	r6, r0
	mov	r4, r1
	mov	r5, r2
	.loc 1 300 8 view .LVU313
	bcc	.L95
	.loc 1 300 47 discriminator 1 view .LVU314
	ldrh	r3, [r3, #6]
	.loc 1 300 30 discriminator 1 view .LVU315
	cmp	r3, r1
	bcc	.L95
	.loc 1 300 55 discriminator 2 view .LVU316
	cmp	ip, r2
	bcc	.L95
	.loc 1 301 28 view .LVU317
	cmp	r3, r7
	bcc	.L95
	.loc 1 306 5 is_stmt 1 view .LVU318
	.loc 1 306 8 is_stmt 0 view .LVU319
	cmp	r9, #0
	beq	.L103
	.loc 1 308 13 view .LVU320
	mov	r9, #0
.LVL105:
.L99:
	.loc 1 307 30 is_stmt 1 discriminator 1 view .LVU321
	.loc 1 307 9 is_stmt 0 discriminator 1 view .LVU322
	cmp	r4, r7
	bcc	.L101
.LVL106:
.L95:
	.loc 1 316 1 view .LVU323
	add	sp, sp, #16
.LCFI11:
	@ sp needed
	pop	{r4, r5, r6, r7, r8, r9, r10, pc}
.LVL107:
.L101:
.LCFI12:
	.loc 1 308 13 is_stmt 1 discriminator 3 view .LVU324
	mov	r3, r4
	mov	r1, r4
	strd	r9, r10, [sp, #4]
	str	r8, [sp]
	mov	r2, r5
	mov	r0, r6
	.loc 1 307 51 is_stmt 0 discriminator 3 view .LVU325
	adds	r4, r4, #1
.LVL108:
	.loc 1 308 13 discriminator 3 view .LVU326
	bl	Paint_DrawLine
.LVL109:
	.loc 1 307 45 is_stmt 1 discriminator 3 view .LVU327
	.loc 1 307 51 is_stmt 0 discriminator 3 view .LVU328
	uxth	r4, r4
.LVL110:
	.loc 1 307 51 discriminator 3 view .LVU329
	b	.L99
.LVL111:
.L103:
	.loc 1 311 9 is_stmt 1 view .LVU330
	mov	r3, r1
	strd	r9, r10, [sp, #4]
	str	r8, [sp]
	bl	Paint_DrawLine
.LVL112:
	.loc 1 312 9 view .LVU331
	mov	r3, r7
	mov	r2, r6
	mov	r1, r4
	mov	r0, r6
	strd	r9, r10, [sp, #4]
	str	r8, [sp]
	bl	Paint_DrawLine
.LVL113:
	.loc 1 313 9 view .LVU332
	mov	r3, r4
	mov	r2, r5
	mov	r1, r7
	mov	r0, r5
	strd	r9, r10, [sp, #4]
	str	r8, [sp]
	bl	Paint_DrawLine
.LVL114:
	.loc 1 314 9 view .LVU333
	mov	r3, r7
	mov	r2, r6
	mov	r1, r7
	mov	r0, r5
	strd	r9, r10, [sp, #52]
.LVL115:
	.loc 1 314 9 is_stmt 0 view .LVU334
	str	r8, [sp, #48]
.LVL116:
	.loc 1 316 1 view .LVU335
	add	sp, sp, #16
.LCFI13:
	@ sp needed
	pop	{r4, r5, r6, r7, r8, r9, r10, lr}
.LCFI14:
	.loc 1 314 9 view .LVU336
	b	Paint_DrawLine
.LVL117:
.L105:
	.align	2
.L104:
	.word	.LANCHOR0
.LFE9:
	.size	Paint_DrawRectangle, .-Paint_DrawRectangle
	.section	.text.Paint_DrawCircle,"ax",%progbits
	.align	1
	.global	Paint_DrawCircle
	.syntax unified
	.thumb
	.thumb_func
	.fpu softvfp
	.type	Paint_DrawCircle, %function
Paint_DrawCircle:
.LVL118:
.LFB10:
	.loc 1 330 1 is_stmt 1 view -0
	@ args = 8, pretend = 0, frame = 32
	@ frame_needed = 0, uses_anonymous_args = 0
	.loc 1 331 2 view .LVU338
	.loc 1 332 2 view .LVU339
	.loc 1 333 5 view .LVU340
	.loc 1 330 1 is_stmt 0 view .LVU341
	push	{r4, r5, r6, r7, r8, r9, r10, fp, lr}
.LCFI15:
	sub	sp, sp, #44
.LCFI16:
	.loc 1 330 1 view .LVU342
	mov	r5, r1
	str	r0, [sp, #16]
	.loc 1 333 25 view .LVU343
	ldr	r0, .L120
.LVL119:
	.loc 1 330 1 view .LVU344
	ldrb	r7, [sp, #80]	@ zero_extendqisi2
	.loc 1 333 8 view .LVU345
	ldrh	r4, [r0, #4]
	.loc 1 330 1 view .LVU346
	ldrb	r9, [sp, #84]	@ zero_extendqisi2
	mov	r1, r2
.LVL120:
	.loc 1 330 1 view .LVU347
	mov	r2, r3
.LVL121:
	.loc 1 333 8 view .LVU348
	ldr	r3, [sp, #16]
.LVL122:
	.loc 1 333 8 view .LVU349
	cmp	r4, r3
	bcc	.L106
	.loc 1 333 32 discriminator 1 view .LVU350
	ldrh	r0, [r0, #6]
	cmp	r0, r5
	bls	.L106
	.loc 1 339 5 is_stmt 1 view .LVU351
.LVL123:
	.loc 1 340 5 view .LVU352
	.loc 1 340 14 is_stmt 0 view .LVU353
	sxth	r4, r1
.LVL124:
	.loc 1 343 4 is_stmt 1 view .LVU354
	.loc 1 343 22 is_stmt 0 view .LVU355
	lsls	r1, r1, #1
	.loc 1 343 12 view .LVU356
	rsb	r1, r1, #3
	.loc 1 343 8 view .LVU357
	sxth	r3, r1
	.loc 1 344 8 view .LVU358
	cmp	r7, #1
	.loc 1 343 8 view .LVU359
	str	r3, [sp, #12]
.LVL125:
	.loc 1 344 5 is_stmt 1 view .LVU360
	.loc 1 344 8 is_stmt 0 view .LVU361
	beq	.L117
	movs	r3, #0
	str	r3, [sp, #20]
	.loc 1 366 13 view .LVU362
	movs	r6, #1
.LVL126:
.L110:
	.loc 1 366 13 view .LVU363
	ldrsh	r3, [sp, #20]
	ldrh	r7, [sp, #20]
	str	r3, [sp, #24]
.LVL127:
	.loc 1 365 15 is_stmt 1 view .LVU364
	cmp	r4, r3
	blt	.L106
	.loc 1 366 13 view .LVU365
	ldr	r3, [sp, #16]
	str	r6, [sp]
	add	r10, r3, r7
	uxtah	r8, r5, r4
	uxth	r10, r10
	uxth	r8, r8
	uxth	r3, r4
	mov	r1, r8
	mov	r0, r10
	str	r3, [sp, #32]
	mov	r3, r9
	bl	Paint_DrawPoint
.LVL128:
	.loc 1 367 13 view .LVU366
	ldr	r3, [sp, #16]
	str	r6, [sp]
	sub	fp, r3, r7
	uxth	fp, fp
	mov	r1, r8
	mov	r3, r9
	mov	r0, fp
	bl	Paint_DrawPoint
.LVL129:
	.loc 1 368 13 view .LVU367
	ldr	r3, [sp, #16]
	str	r6, [sp]
	uxth	r1, r4
	add	r8, r5, r7
	subs	r0, r3, r1
	uxth	r8, r8
	uxth	r0, r0
	mov	r3, r9
	mov	r1, r8
	str	r0, [sp, #36]
	bl	Paint_DrawPoint
.LVL130:
	.loc 1 369 13 view .LVU368
	subs	r3, r5, r7
	uxth	r3, r3
	str	r3, [sp, #28]
	ldr	r1, [sp, #28]
	ldr	r0, [sp, #36]
	str	r6, [sp]
	mov	r3, r9
	bl	Paint_DrawPoint
.LVL131:
	.loc 1 370 13 view .LVU369
	uxth	r3, r4
	subs	r1, r5, r3
	uxth	r1, r1
	mov	r3, r9
	mov	r0, fp
	str	r6, [sp]
	str	r1, [sp, #36]
	bl	Paint_DrawPoint
.LVL132:
	.loc 1 371 13 view .LVU370
	mov	r0, r10
	ldr	r1, [sp, #36]
	str	r6, [sp]
	mov	r3, r9
	bl	Paint_DrawPoint
.LVL133:
	.loc 1 372 13 view .LVU371
	ldr	r1, [sp, #16]
	str	r6, [sp]
	uxth	r3, r4
	add	r10, r3, r1
	uxth	r10, r10
	ldr	r1, [sp, #28]
	mov	r3, r9
	mov	r0, r10
	bl	Paint_DrawPoint
.LVL134:
	.loc 1 373 13 view .LVU372
	mov	r3, r9
	mov	r1, r8
	str	r6, [sp]
	mov	r0, r10
	bl	Paint_DrawPoint
.LVL135:
	.loc 1 375 13 view .LVU373
	.loc 1 375 16 is_stmt 0 view .LVU374
	ldr	r3, [sp, #12]
	.loc 1 376 21 view .LVU375
	ldrh	r1, [sp, #12]
	.loc 1 375 16 view .LVU376
	cmp	r3, #0
	bge	.L114
	.loc 1 376 17 is_stmt 1 view .LVU377
	.loc 1 376 21 is_stmt 0 view .LVU378
	adds	r1, r1, #6
	add	r7, r1, r7, lsl #2
	sxth	r3, r7
	str	r3, [sp, #12]
.LVL136:
.L115:
	.loc 1 381 13 is_stmt 1 view .LVU379
	.loc 1 381 13 is_stmt 0 view .LVU380
	ldr	r3, [sp, #20]
	adds	r3, r3, #1
	str	r3, [sp, #20]
.LVL137:
	.loc 1 381 13 view .LVU381
	b	.L110
.LVL138:
.L118:
	.loc 1 381 13 view .LVU382
	ldrd	r3, r6, [sp, #16]
	add	r3, r3, r9
	uxth	r3, r3
	str	r3, [sp, #24]
	ldr	r3, [sp, #16]
	sub	r3, r3, r9
	uxth	r3, r3
	str	r3, [sp, #28]
	add	r3, r5, r9
	uxth	r3, r3
	str	r3, [sp, #32]
.L111:
.LVL139:
	.loc 1 347 17 is_stmt 1 discriminator 3 view .LVU383
	uxth	r8, r6
	uxtah	r6, r5, r6
.LVL140:
	.loc 1 347 17 is_stmt 0 discriminator 3 view .LVU384
	uxth	r6, r6
	mov	r1, r6
	ldr	r0, [sp, #24]
	str	r7, [sp]
	movs	r3, #1
	bl	Paint_DrawPoint
.LVL141:
	.loc 1 348 17 is_stmt 1 discriminator 3 view .LVU385
	mov	r1, r6
	ldr	r0, [sp, #28]
	str	r7, [sp]
	movs	r3, #1
	bl	Paint_DrawPoint
.LVL142:
	.loc 1 349 17 discriminator 3 view .LVU386
	ldr	r3, [sp, #16]
	ldr	r1, [sp, #32]
	str	r7, [sp]
	sub	r6, r3, r8
	uxth	r6, r6
	sub	fp, r5, r9
	mov	r0, r6
	movs	r3, #1
	uxth	fp, fp
	bl	Paint_DrawPoint
.LVL143:
	.loc 1 350 17 discriminator 3 view .LVU387
	mov	r0, r6
	movs	r3, #1
	mov	r1, fp
	str	r7, [sp]
	bl	Paint_DrawPoint
.LVL144:
	.loc 1 351 17 discriminator 3 view .LVU388
	sub	r1, r5, r8
	uxth	r1, r1
	ldr	r0, [sp, #28]
	str	r7, [sp]
	movs	r3, #1
	add	r6, r6, r8, lsl #1
	uxth	r6, r6
	str	r1, [sp, #36]
	bl	Paint_DrawPoint
.LVL145:
	.loc 1 352 17 discriminator 3 view .LVU389
	ldr	r1, [sp, #36]
	ldr	r0, [sp, #24]
	str	r7, [sp]
	movs	r3, #1
	bl	Paint_DrawPoint
.LVL146:
	.loc 1 353 17 discriminator 3 view .LVU390
	mov	r0, r6
	movs	r3, #1
	mov	r1, fp
	str	r7, [sp]
	bl	Paint_DrawPoint
.LVL147:
	.loc 1 354 17 discriminator 3 view .LVU391
	mov	r0, r6
	add	r6, r8, #1
	ldr	r1, [sp, #32]
	str	r7, [sp]
	movs	r3, #1
	sxth	r6, r6
	bl	Paint_DrawPoint
.LVL148:
	.loc 1 346 59 discriminator 3 view .LVU392
	.loc 1 346 38 discriminator 3 view .LVU393
	.loc 1 346 13 is_stmt 0 discriminator 3 view .LVU394
	cmp	r4, r6
	bge	.L111
	.loc 1 356 13 is_stmt 1 view .LVU395
	.loc 1 356 16 is_stmt 0 view .LVU396
	ldr	r1, [sp, #12]
	.loc 1 357 21 view .LVU397
	ldrh	r3, [sp, #12]
	.loc 1 356 16 view .LVU398
	cmp	r1, #0
	bge	.L112
	.loc 1 357 17 is_stmt 1 view .LVU399
	.loc 1 357 21 is_stmt 0 view .LVU400
	adds	r3, r3, #6
	add	r9, r3, r9, lsl #2
	sxth	r3, r9
	str	r3, [sp, #12]
.LVL149:
.L113:
	.loc 1 362 13 is_stmt 1 view .LVU401
	.loc 1 362 13 is_stmt 0 view .LVU402
	add	r10, r10, #1
.LVL150:
.L109:
	.loc 1 362 13 view .LVU403
	sxth	r3, r10
	.loc 1 345 15 view .LVU404
	cmp	r4, r3
	uxth	r9, r10
	str	r3, [sp, #20]
.LVL151:
	.loc 1 345 15 is_stmt 1 view .LVU405
	bge	.L118
.LVL152:
.L106:
	.loc 1 384 1 is_stmt 0 view .LVU406
	add	sp, sp, #44
.LCFI17:
	@ sp needed
	pop	{r4, r5, r6, r7, r8, r9, r10, fp, pc}
.LVL153:
.L112:
.LCFI18:
	.loc 1 359 17 is_stmt 1 view .LVU407
	.loc 1 359 43 is_stmt 0 view .LVU408
	ldr	r1, [sp, #20]
	.loc 1 359 21 view .LVU409
	adds	r3, r3, #10
	.loc 1 359 43 view .LVU410
	subs	r1, r1, r4
	.loc 1 359 21 view .LVU411
	add	r3, r3, r1, lsl #2
	sxth	r3, r3
	.loc 1 360 26 view .LVU412
	subs	r4, r4, #1
.LVL154:
	.loc 1 359 21 view .LVU413
	str	r3, [sp, #12]
.LVL155:
	.loc 1 360 17 is_stmt 1 view .LVU414
	.loc 1 360 26 is_stmt 0 view .LVU415
	sxth	r4, r4
.LVL156:
	.loc 1 360 26 view .LVU416
	b	.L113
.LVL157:
.L117:
	.loc 1 360 26 view .LVU417
	mov	r10, #0
	b	.L109
.LVL158:
.L114:
	.loc 1 378 17 is_stmt 1 view .LVU418
	.loc 1 378 43 is_stmt 0 view .LVU419
	ldr	r3, [sp, #24]
	.loc 1 378 21 view .LVU420
	adds	r1, r1, #10
	.loc 1 378 43 view .LVU421
	subs	r4, r3, r4
.LVL159:
	.loc 1 378 21 view .LVU422
	add	r1, r1, r4, lsl #2
	sxth	r3, r1
	str	r3, [sp, #12]
.LVL160:
	.loc 1 379 17 is_stmt 1 view .LVU423
	.loc 1 379 26 is_stmt 0 view .LVU424
	ldr	r3, [sp, #32]
	subs	r4, r3, #1
	sxth	r4, r4
.LVL161:
	.loc 1 379 26 view .LVU425
	b	.L115
.L121:
	.align	2
.L120:
	.word	.LANCHOR0
.LFE10:
	.size	Paint_DrawCircle, .-Paint_DrawCircle
	.section	.text.Paint_DrawChar,"ax",%progbits
	.align	1
	.global	Paint_DrawChar
	.syntax unified
	.thumb
	.thumb_func
	.fpu softvfp
	.type	Paint_DrawChar, %function
Paint_DrawChar:
.LVL162:
.LFB11:
	.loc 1 398 1 is_stmt 1 view -0
	@ args = 8, pretend = 0, frame = 8
	@ frame_needed = 0, uses_anonymous_args = 0
	.loc 1 399 5 view .LVU427
	.loc 1 400 4 view .LVU428
	.loc 1 401 3 view .LVU429
	.loc 1 403 5 view .LVU430
	.loc 1 398 1 is_stmt 0 view .LVU431
	push	{r0, r1, r2, r4, r5, r6, r7, r8, r9, r10, fp, lr}
.LCFI19:
	.loc 1 398 1 view .LVU432
	mov	r4, r3
	.loc 1 403 23 view .LVU433
	ldr	r3, .L142
.LVL163:
	.loc 1 398 1 view .LVU434
	str	r1, [sp, #4]
	.loc 1 403 8 view .LVU435
	ldrh	r1, [r3, #4]
.LVL164:
	.loc 1 398 1 view .LVU436
	ldrh	r9, [sp, #48]
	ldrh	r10, [sp, #52]
	.loc 1 403 8 view .LVU437
	cmp	r1, r0
	.loc 1 398 1 view .LVU438
	mov	r5, r0
	.loc 1 403 8 view .LVU439
	bcc	.L122
	.loc 1 403 30 discriminator 1 view .LVU440
	ldrh	r3, [r3, #6]
	ldr	r1, [sp, #4]
	cmp	r3, r1
	bcc	.L122
.LVL165:
.LBB20:
.LBI20:
	.loc 1 396 6 is_stmt 1 view .LVU441
.LBB21:
	.loc 1 408 5 view .LVU442
	.loc 1 408 60 is_stmt 0 view .LVU443
	ldrh	r1, [r4, #4]
.LVL166:
	.loc 1 409 5 is_stmt 1 view .LVU444
	.loc 1 408 95 is_stmt 0 view .LVU445
	ands	r3, r1, #7
	it	ne
	movne	r3, #1
	.loc 1 408 72 view .LVU446
	add	r3, r3, r1, lsr #3
	.loc 1 408 44 view .LVU447
	ldrh	r1, [r4, #6]
.LVL167:
	.loc 1 408 31 view .LVU448
	subs	r2, r2, #32
.LVL168:
	.loc 1 408 38 view .LVU449
	muls	r2, r1, r2
	.loc 1 409 9 view .LVU450
	ldr	r1, [r4]
	.loc 1 411 5 view .LVU451
	movs	r7, #0
	.loc 1 409 9 view .LVU452
	mla	r6, r2, r3, r1
.LVL169:
	.loc 1 411 5 is_stmt 1 view .LVU453
.L125:
	.loc 1 411 20 view .LVU454
	.loc 1 411 5 is_stmt 0 view .LVU455
	ldrh	r2, [r4, #6]
	uxth	r1, r7
	cmp	r2, r1
	bhi	.L133
.LVL170:
.L122:
	.loc 1 411 5 view .LVU456
.LBE21:
.LBE20:
	.loc 1 436 1 view .LVU457
	add	sp, sp, #12
.LCFI20:
	@ sp needed
	pop	{r4, r5, r6, r7, r8, r9, r10, fp, pc}
.LVL171:
.L130:
.LCFI21:
.LBB23:
.LBB22:
	.loc 1 416 13 is_stmt 1 view .LVU458
	and	r3, r0, #7
	str	r3, [sp]
	.loc 1 417 34 is_stmt 0 view .LVU459
	ldr	r2, [sp]
	.loc 1 417 21 view .LVU460
	ldrb	ip, [r6]	@ zero_extendqisi2
	.loc 1 417 34 view .LVU461
	movs	r3, #128
	asr	r2, r3, r2
	.loc 1 416 16 view .LVU462
	cmp	r9, #255
	.loc 1 417 26 view .LVU463
	and	r2, r2, ip
	.loc 1 416 16 view .LVU464
	bne	.L126
	.loc 1 417 17 is_stmt 1 view .LVU465
	.loc 1 417 20 is_stmt 0 view .LVU466
	cbz	r2, .L127
	.loc 1 418 21 is_stmt 1 view .LVU467
	add	r0, r0, r5
.LVL172:
	.loc 1 418 21 is_stmt 0 view .LVU468
	mov	r2, r10
	mov	r1, fp
	uxth	r0, r0
.L140:
	.loc 1 425 21 view .LVU469
	bl	Paint_SetPixel
.LVL173:
.L127:
	.loc 1 430 13 is_stmt 1 view .LVU470
	.loc 1 430 16 is_stmt 0 view .LVU471
	ldr	r3, [sp]
	cmp	r3, #7
	.loc 1 431 17 is_stmt 1 view .LVU472
	.loc 1 431 20 is_stmt 0 view .LVU473
	it	eq
	addeq	r6, r6, #1
.LVL174:
	.loc 1 412 48 is_stmt 1 view .LVU474
	.loc 1 412 48 is_stmt 0 view .LVU475
	add	r8, r8, #1
.LVL175:
.L132:
	.loc 1 412 39 view .LVU476
	ldrh	r2, [r4, #4]
	uxth	r0, r8
.LVL176:
	.loc 1 412 26 is_stmt 1 view .LVU477
	.loc 1 412 9 is_stmt 0 view .LVU478
	cmp	r0, r2
	bcc	.L130
	.loc 1 433 9 is_stmt 1 view .LVU479
	.loc 1 433 12 is_stmt 0 view .LVU480
	lsls	r3, r2, #29
	.loc 1 434 13 is_stmt 1 view .LVU481
	.loc 1 434 16 is_stmt 0 view .LVU482
	it	ne
	addne	r6, r6, #1
.LVL177:
	.loc 1 411 41 is_stmt 1 view .LVU483
	.loc 1 411 41 is_stmt 0 view .LVU484
	adds	r7, r7, #1
.LVL178:
	.loc 1 411 41 view .LVU485
	b	.L125
.LVL179:
.L126:
	.loc 1 421 17 is_stmt 1 view .LVU486
	add	r0, r0, r5
.LVL180:
	.loc 1 421 17 is_stmt 0 view .LVU487
	uxth	r0, r0
	.loc 1 421 20 view .LVU488
	cbz	r2, .L128
	.loc 1 422 21 is_stmt 1 view .LVU489
	mov	r2, r10
.L141:
	.loc 1 425 21 is_stmt 0 view .LVU490
	mov	r1, fp
	b	.L140
.L128:
	.loc 1 425 21 is_stmt 1 view .LVU491
	mov	r2, r9
	b	.L141
.LVL181:
.L133:
	.loc 1 425 21 is_stmt 0 view .LVU492
	ldr	r3, [sp, #4]
	add	r1, r1, r3
	mov	r8, #0
	uxth	fp, r1
	b	.L132
.L143:
	.align	2
.L142:
	.word	.LANCHOR0
.LBE22:
.LBE23:
.LFE11:
	.size	Paint_DrawChar, .-Paint_DrawChar
	.section	.text.Paint_DrawString_EN,"ax",%progbits
	.align	1
	.global	Paint_DrawString_EN
	.syntax unified
	.thumb
	.thumb_func
	.fpu softvfp
	.type	Paint_DrawString_EN, %function
Paint_DrawString_EN:
.LVL182:
.LFB12:
	.loc 1 450 1 is_stmt 1 view -0
	@ args = 8, pretend = 0, frame = 8
	@ frame_needed = 0, uses_anonymous_args = 0
	.loc 1 451 5 view .LVU494
	.loc 1 452 5 view .LVU495
	.loc 1 450 1 is_stmt 0 view .LVU496
	push	{r4, r5, r6, r7, r8, r9, r10, fp, lr}
.LCFI22:
	.loc 1 454 23 view .LVU497
	ldr	r9, .L152
	.loc 1 450 1 view .LVU498
	mov	r8, r1
.LVL183:
	.loc 1 454 5 is_stmt 1 view .LVU499
	.loc 1 454 8 is_stmt 0 view .LVU500
	ldrh	r1, [r9, #4]
.LVL184:
	.loc 1 450 1 view .LVU501
	sub	sp, sp, #20
.LCFI23:
	.loc 1 454 8 view .LVU502
	cmp	r1, r0
	.loc 1 450 1 view .LVU503
	ldrh	r10, [sp, #56]
	ldrh	fp, [sp, #60]
	mov	r7, r0
	.loc 1 454 8 view .LVU504
	bcc	.L144
	.loc 1 454 30 discriminator 1 view .LVU505
	ldrh	r1, [r9, #6]
	cmp	r1, r8
	bcc	.L144
	subs	r6, r2, #1
	.loc 1 454 30 view .LVU506
	mov	r4, r8
	mov	r5, r0
.LVL185:
.L147:
.LBB26:
.LBB27:
	.loc 1 459 11 is_stmt 1 view .LVU507
	.loc 1 459 12 is_stmt 0 view .LVU508
	ldrb	r2, [r6, #1]!	@ zero_extendqisi2
.LVL186:
	.loc 1 459 11 view .LVU509
	cbnz	r2, .L151
.LVL187:
.L144:
	.loc 1 459 11 view .LVU510
.LBE27:
.LBE26:
	.loc 1 486 1 view .LVU511
	add	sp, sp, #20
.LCFI24:
	@ sp needed
	pop	{r4, r5, r6, r7, r8, r9, r10, fp, pc}
.LVL188:
.L151:
.LCFI25:
.LBB29:
.LBB28:
	.loc 1 461 9 is_stmt 1 view .LVU512
	.loc 1 461 27 is_stmt 0 view .LVU513
	ldrh	r0, [r3, #4]
	.loc 1 461 44 view .LVU514
	ldrh	ip, [r9, #4]
	.loc 1 463 27 view .LVU515
	ldrh	r1, [r3, #6]
	.loc 1 478 9 view .LVU516
	str	r3, [sp, #12]
	.loc 1 461 21 view .LVU517
	add	r0, r0, r5
	.loc 1 461 12 view .LVU518
	cmp	r0, ip
	.loc 1 462 13 is_stmt 1 view .LVU519
.LVL189:
	.loc 1 463 13 view .LVU520
	.loc 1 463 20 is_stmt 0 view .LVU521
	itt	gt
	addgt	r4, r4, r1
.LVL190:
	.loc 1 463 20 view .LVU522
	uxthgt	r4, r4
.LVL191:
	.loc 1 467 46 view .LVU523
	ldrh	r0, [r9, #6]
	.loc 1 467 22 view .LVU524
	add	ip, r4, r1
	.loc 1 463 20 view .LVU525
	it	gt
	movgt	r5, r7
.LVL192:
	.loc 1 467 9 is_stmt 1 view .LVU526
	.loc 1 467 12 is_stmt 0 view .LVU527
	cmp	ip, r0
	.loc 1 472 11 view .LVU528
	ldrb	r0, [r6, #-1]	@ zero_extendqisi2
	.loc 1 467 12 view .LVU529
	itt	gt
	movgt	r4, r8
.LVL193:
	.loc 1 467 12 view .LVU530
	movgt	r5, r7
.LVL194:
	.loc 1 472 9 is_stmt 1 view .LVU531
	.loc 1 472 11 is_stmt 0 view .LVU532
	cmp	r0, #32
	.loc 1 474 13 is_stmt 1 view .LVU533
.LVL195:
	.loc 1 475 13 view .LVU534
	.loc 1 475 20 is_stmt 0 view .LVU535
	ittt	eq
	addeq	r4, r4, r1
.LVL196:
	.loc 1 475 20 view .LVU536
	moveq	r5, r7
	uxtheq	r4, r4
.LVL197:
	.loc 1 478 9 is_stmt 1 view .LVU537
	mov	r0, r5
	strd	r10, fp, [sp]
	mov	r1, r4
	bl	Paint_DrawChar
.LVL198:
	.loc 1 481 9 view .LVU538
	.loc 1 484 9 view .LVU539
	.loc 1 484 16 is_stmt 0 view .LVU540
	ldr	r3, [sp, #12]
	ldrh	r2, [r3, #4]
	add	r5, r5, r2
.LVL199:
	.loc 1 484 16 view .LVU541
	uxth	r5, r5
.LVL200:
	.loc 1 484 16 view .LVU542
	b	.L147
.L153:
	.align	2
.L152:
	.word	.LANCHOR0
.LBE28:
.LBE29:
.LFE12:
	.size	Paint_DrawString_EN, .-Paint_DrawString_EN
	.section	.text.Paint_DrawString_CN,"ax",%progbits
	.align	1
	.global	Paint_DrawString_CN
	.syntax unified
	.thumb
	.thumb_func
	.fpu softvfp
	.type	Paint_DrawString_CN, %function
Paint_DrawString_CN:
.LVL201:
.LFB13:
	.loc 1 501 1 is_stmt 1 view -0
	@ args = 8, pretend = 0, frame = 16
	@ frame_needed = 0, uses_anonymous_args = 0
	.loc 1 502 5 view .LVU544
	.loc 1 501 1 is_stmt 0 view .LVU545
	push	{r4, r5, r6, r7, r8, r9, r10, fp, lr}
.LCFI26:
	sub	sp, sp, #20
.LCFI27:
	.loc 1 501 1 view .LVU546
	mov	r6, r2
.LVL202:
	.loc 1 503 5 is_stmt 1 view .LVU547
	.loc 1 501 1 is_stmt 0 view .LVU548
	ldrh	r8, [sp, #56]
	ldrh	r9, [sp, #60]
	str	r1, [sp, #8]
	mov	r4, r3
	.loc 1 503 9 view .LVU549
	mov	r5, r0
.LVL203:
	.loc 1 504 5 is_stmt 1 view .LVU550
	.loc 1 507 5 view .LVU551
.L155:
	.loc 1 507 11 view .LVU552
	.loc 1 507 12 is_stmt 0 view .LVU553
	ldrb	r3, [r6]	@ zero_extendqisi2
	.loc 1 507 11 view .LVU554
	cbnz	r3, .L181
	.loc 1 582 1 view .LVU555
	add	sp, sp, #20
.LCFI28:
	@ sp needed
	pop	{r4, r5, r6, r7, r8, r9, r10, fp, pc}
.LVL204:
.L181:
.LCFI29:
	.loc 1 508 9 is_stmt 1 view .LVU556
	.loc 1 508 11 is_stmt 0 view .LVU557
	lsls	r1, r3, #24
	.loc 1 509 36 view .LVU558
	ldrh	r0, [r4, #4]
	.loc 1 509 21 view .LVU559
	mov	r2, #0
	.loc 1 510 41 view .LVU560
	mov	ip, #166
	.loc 1 508 11 view .LVU561
	bpl	.L156
.L157:
.LVL205:
	.loc 1 545 26 is_stmt 1 discriminator 1 view .LVU562
	.loc 1 545 13 is_stmt 0 discriminator 1 view .LVU563
	cmp	r2, r0
	bge	.L180
	.loc 1 546 17 is_stmt 1 view .LVU564
	.loc 1 546 42 is_stmt 0 view .LVU565
	ldr	r7, [r4]
	mul	r1, ip, r2
	add	lr, r7, r1
	.loc 1 546 19 view .LVU566
	ldrb	r1, [r7, r1]	@ zero_extendqisi2
	cmp	r1, r3
	bne	.L170
	.loc 1 546 58 discriminator 1 view .LVU567
	ldrb	r7, [r6, #1]	@ zero_extendqisi2
	ldrb	r1, [lr, #1]	@ zero_extendqisi2
	cmp	r7, r1
	bne	.L170
.LBB30:
	.loc 1 547 21 is_stmt 1 view .LVU568
	.loc 1 547 33 is_stmt 0 view .LVU569
	add	r7, lr, #2
.LVL206:
	.loc 1 549 21 is_stmt 1 view .LVU570
	.loc 1 549 28 is_stmt 0 view .LVU571
	movs	r3, #0
.LVL207:
.L202:
	.loc 1 549 52 discriminator 2 view .LVU572
	str	r3, [sp, #4]
.LVL208:
	.loc 1 549 33 is_stmt 1 discriminator 2 view .LVU573
	.loc 1 549 21 is_stmt 0 discriminator 2 view .LVU574
	ldr	r2, [sp, #4]
	.loc 1 549 41 discriminator 2 view .LVU575
	ldrh	r3, [r4, #10]
.LVL209:
	.loc 1 549 21 discriminator 2 view .LVU576
	cmp	r3, r2
	bgt	.L184
.LVL210:
.L180:
	.loc 1 549 21 discriminator 2 view .LVU577
.LBE30:
	.loc 1 577 13 is_stmt 1 view .LVU578
	.loc 1 579 22 is_stmt 0 view .LVU579
	ldrh	r3, [r4, #8]
	.loc 1 577 20 view .LVU580
	adds	r6, r6, #2
.LVL211:
	.loc 1 579 13 is_stmt 1 view .LVU581
	b	.L203
.LVL212:
.L164:
.LBB31:
	.loc 1 515 29 view .LVU582
	.loc 1 516 56 is_stmt 0 view .LVU583
	and	r3, fp, #7
	.loc 1 516 37 view .LVU584
	ldrb	r2, [r7]	@ zero_extendqisi2
	.loc 1 516 56 view .LVU585
	str	r3, [sp, #12]
	.loc 1 516 50 view .LVU586
	and	r1, fp, #7
	movs	r3, #128
	asr	r0, r3, r1
	.loc 1 515 32 view .LVU587
	cmp	r8, #255
	.loc 1 516 42 view .LVU588
	and	r2, r2, r0
	.loc 1 515 32 view .LVU589
	bne	.L160
	.loc 1 516 33 is_stmt 1 view .LVU590
	.loc 1 516 36 is_stmt 0 view .LVU591
	cbz	r2, .L161
	.loc 1 517 37 is_stmt 1 view .LVU592
	add	r0, r5, fp
	mov	r2, r9
	mov	r1, r10
	uxth	r0, r0
.L197:
	.loc 1 525 37 is_stmt 0 view .LVU593
	bl	Paint_SetPixel
.LVL213:
.L161:
	.loc 1 529 29 is_stmt 1 view .LVU594
	.loc 1 529 32 is_stmt 0 view .LVU595
	and	r3, fp, #7
	cmp	r3, #7
	.loc 1 530 33 is_stmt 1 view .LVU596
	.loc 1 530 36 is_stmt 0 view .LVU597
	it	eq
	addeq	r7, r7, #1
.LVL214:
	.loc 1 514 54 is_stmt 1 view .LVU598
	.loc 1 514 55 is_stmt 0 view .LVU599
	add	fp, fp, #1
.LVL215:
.L166:
	.loc 1 514 37 is_stmt 1 discriminator 1 view .LVU600
	.loc 1 514 45 is_stmt 0 discriminator 1 view .LVU601
	ldrh	r2, [r4, #8]
	.loc 1 514 25 discriminator 1 view .LVU602
	cmp	r2, fp
	bgt	.L164
	.loc 1 533 25 is_stmt 1 view .LVU603
	.loc 1 513 52 is_stmt 0 view .LVU604
	ldr	r3, [sp, #4]
	.loc 1 533 28 view .LVU605
	lsls	r2, r2, #29
	.loc 1 534 29 is_stmt 1 view .LVU606
	.loc 1 534 32 is_stmt 0 view .LVU607
	it	ne
	addne	r7, r7, #1
.LVL216:
	.loc 1 513 51 is_stmt 1 view .LVU608
	.loc 1 513 52 is_stmt 0 view .LVU609
	adds	r3, r3, #1
	b	.L199
.L160:
	.loc 1 521 33 is_stmt 1 view .LVU610
	.loc 1 517 37 is_stmt 0 view .LVU611
	add	r0, fp, r5
	uxth	r0, r0
	.loc 1 521 36 view .LVU612
	cbz	r2, .L162
	.loc 1 522 37 is_stmt 1 view .LVU613
	mov	r2, r9
.L198:
	.loc 1 525 37 is_stmt 0 view .LVU614
	mov	r1, r10
	b	.L197
.L162:
	.loc 1 525 37 is_stmt 1 view .LVU615
	mov	r2, r8
	b	.L198
.LVL217:
.L183:
	.loc 1 525 37 is_stmt 0 view .LVU616
	ldrd	r2, r3, [sp, #4]
.LVL218:
	.loc 1 525 37 view .LVU617
	adds	r1, r3, r2
	.loc 1 514 32 view .LVU618
	mov	fp, #0
	uxth	r10, r1
	b	.L166
.LVL219:
.L158:
	.loc 1 514 32 view .LVU619
.LBE31:
	.loc 1 509 44 is_stmt 1 discriminator 2 view .LVU620
	.loc 1 509 47 is_stmt 0 discriminator 2 view .LVU621
	adds	r2, r2, #1
.LVL220:
.L156:
	.loc 1 509 26 is_stmt 1 discriminator 1 view .LVU622
	.loc 1 509 13 is_stmt 0 discriminator 1 view .LVU623
	cmp	r2, r0
	bge	.L169
	.loc 1 510 17 is_stmt 1 view .LVU624
	.loc 1 510 41 is_stmt 0 view .LVU625
	ldr	r7, [r4]
	mul	r1, ip, r2
	add	lr, r7, r1
	.loc 1 510 19 view .LVU626
	ldrb	r1, [r7, r1]	@ zero_extendqisi2
	cmp	r1, r3
	bne	.L158
.LBB32:
	.loc 1 511 21 is_stmt 1 view .LVU627
	.loc 1 511 33 is_stmt 0 view .LVU628
	add	r7, lr, #2
.LVL221:
	.loc 1 513 21 is_stmt 1 view .LVU629
	.loc 1 513 28 is_stmt 0 view .LVU630
	movs	r3, #0
.LVL222:
.L199:
	.loc 1 513 52 discriminator 2 view .LVU631
	str	r3, [sp, #4]
.LVL223:
	.loc 1 513 33 is_stmt 1 discriminator 2 view .LVU632
	.loc 1 513 21 is_stmt 0 discriminator 2 view .LVU633
	ldr	r2, [sp, #4]
	.loc 1 513 41 discriminator 2 view .LVU634
	ldrh	r3, [r4, #10]
.LVL224:
	.loc 1 513 21 discriminator 2 view .LVU635
	cmp	r3, r2
	bgt	.L183
.LVL225:
.L169:
	.loc 1 513 21 discriminator 2 view .LVU636
.LBE32:
	.loc 1 541 13 is_stmt 1 view .LVU637
	.loc 1 543 22 is_stmt 0 view .LVU638
	ldrh	r3, [r4, #6]
	.loc 1 541 20 view .LVU639
	adds	r6, r6, #1
.LVL226:
	.loc 1 543 13 is_stmt 1 view .LVU640
.L203:
	.loc 1 579 15 is_stmt 0 view .LVU641
	add	r5, r5, r3
.LVL227:
	.loc 1 579 15 view .LVU642
	b	.L155
.LVL228:
.L176:
.LBB33:
	.loc 1 551 29 is_stmt 1 view .LVU643
	.loc 1 552 56 is_stmt 0 view .LVU644
	and	r3, fp, #7
	.loc 1 552 37 view .LVU645
	ldrb	r2, [r7]	@ zero_extendqisi2
	.loc 1 552 56 view .LVU646
	str	r3, [sp, #12]
	.loc 1 552 50 view .LVU647
	and	r1, fp, #7
	movs	r3, #128
	asr	r0, r3, r1
	.loc 1 551 32 view .LVU648
	cmp	r8, #255
	.loc 1 552 42 view .LVU649
	and	r2, r2, r0
	.loc 1 551 32 view .LVU650
	bne	.L172
	.loc 1 552 33 is_stmt 1 view .LVU651
	.loc 1 552 36 is_stmt 0 view .LVU652
	cbz	r2, .L173
	.loc 1 553 37 is_stmt 1 view .LVU653
	add	r0, r5, fp
	mov	r2, r9
	mov	r1, r10
	uxth	r0, r0
.L200:
	.loc 1 561 37 is_stmt 0 view .LVU654
	bl	Paint_SetPixel
.LVL229:
.L173:
	.loc 1 565 29 is_stmt 1 view .LVU655
	.loc 1 565 32 is_stmt 0 view .LVU656
	and	r3, fp, #7
	cmp	r3, #7
	.loc 1 566 33 is_stmt 1 view .LVU657
	.loc 1 566 36 is_stmt 0 view .LVU658
	it	eq
	addeq	r7, r7, #1
.LVL230:
	.loc 1 550 54 is_stmt 1 view .LVU659
	.loc 1 550 55 is_stmt 0 view .LVU660
	add	fp, fp, #1
.LVL231:
.L178:
	.loc 1 550 37 is_stmt 1 discriminator 1 view .LVU661
	.loc 1 550 45 is_stmt 0 discriminator 1 view .LVU662
	ldrh	r2, [r4, #8]
	.loc 1 550 25 discriminator 1 view .LVU663
	cmp	r2, fp
	bgt	.L176
	.loc 1 569 25 is_stmt 1 view .LVU664
	.loc 1 569 28 is_stmt 0 view .LVU665
	lsls	r3, r2, #29
	.loc 1 570 29 is_stmt 1 view .LVU666
	.loc 1 549 52 is_stmt 0 view .LVU667
	ldr	r3, [sp, #4]
	.loc 1 570 32 view .LVU668
	it	ne
	addne	r7, r7, #1
.LVL232:
	.loc 1 549 51 is_stmt 1 view .LVU669
	.loc 1 549 52 is_stmt 0 view .LVU670
	adds	r3, r3, #1
	b	.L202
.L172:
	.loc 1 557 33 is_stmt 1 view .LVU671
	.loc 1 553 37 is_stmt 0 view .LVU672
	add	r0, fp, r5
	uxth	r0, r0
	.loc 1 557 36 view .LVU673
	cbz	r2, .L174
	.loc 1 558 37 is_stmt 1 view .LVU674
	mov	r2, r9
.L201:
	.loc 1 561 37 is_stmt 0 view .LVU675
	mov	r1, r10
	b	.L200
.L174:
	.loc 1 561 37 is_stmt 1 view .LVU676
	mov	r2, r8
	b	.L201
.LVL233:
.L184:
	.loc 1 561 37 is_stmt 0 view .LVU677
	ldrd	r2, r3, [sp, #4]
.LVL234:
	.loc 1 561 37 view .LVU678
	adds	r1, r3, r2
	.loc 1 550 32 view .LVU679
	mov	fp, #0
	uxth	r10, r1
	b	.L178
.LVL235:
.L170:
	.loc 1 550 32 view .LVU680
.LBE33:
	.loc 1 545 44 is_stmt 1 discriminator 2 view .LVU681
	.loc 1 545 47 is_stmt 0 discriminator 2 view .LVU682
	adds	r2, r2, #1
.LVL236:
	.loc 1 545 47 discriminator 2 view .LVU683
	b	.L157
.LFE13:
	.size	Paint_DrawString_CN, .-Paint_DrawString_CN
	.section	.text.Paint_DrawNum,"ax",%progbits
	.align	1
	.global	Paint_DrawNum
	.syntax unified
	.thumb
	.thumb_func
	.fpu softvfp
	.type	Paint_DrawNum, %function
Paint_DrawNum:
.LVL237:
.LFB14:
	.loc 1 597 1 is_stmt 1 view -0
	@ args = 8, pretend = 0, frame = 512
	@ frame_needed = 0, uses_anonymous_args = 0
	.loc 1 599 5 view .LVU685
	.loc 1 600 5 view .LVU686
	.loc 1 597 1 is_stmt 0 view .LVU687
	push	{r4, r5, r6, r7, r8, r9, r10, lr}
.LCFI30:
	.loc 1 600 13 view .LVU688
	movs	r5, #0
	.loc 1 597 1 view .LVU689
	sub	sp, sp, #520
.LCFI31:
	.loc 1 597 1 view .LVU690
	mov	r7, r0
	mov	r8, r1
	mov	r4, r2
	.loc 1 600 13 view .LVU691
	mov	r1, r5
.LVL238:
	.loc 1 600 13 view .LVU692
	movs	r2, #251
.LVL239:
	.loc 1 600 13 view .LVU693
	add	r0, sp, #12
.LVL240:
	.loc 1 600 41 view .LVU694
	add	r10, sp, #264
	.loc 1 597 1 view .LVU695
	mov	r9, r3
	.loc 1 600 13 view .LVU696
	str	r5, [sp, #8]
	bl	memset
.LVL241:
	.loc 1 600 41 view .LVU697
	movs	r2, #251
	mov	r1, r5
	add	r0, sp, #268
	str	r5, [r10]
	bl	memset
.LVL242:
	.loc 1 601 5 is_stmt 1 view .LVU698
	.loc 1 603 5 view .LVU699
	.loc 1 603 23 is_stmt 0 view .LVU700
	ldr	r3, .L212
	.loc 1 603 8 view .LVU701
	ldrh	r2, [r3, #4]
	cmp	r2, r7
	bcc	.L204
	.loc 1 603 30 discriminator 1 view .LVU702
	ldrh	r3, [r3, #6]
	cmp	r3, r8
	bcs	.L211
.LVL243:
.L204:
	.loc 1 624 1 view .LVU703
	add	sp, sp, #520
.LCFI32:
	@ sp needed
	pop	{r4, r5, r6, r7, r8, r9, r10, pc}
.LVL244:
.L208:
.LCFI33:
	.loc 1 610 9 is_stmt 1 view .LVU704
	.loc 1 610 38 is_stmt 0 view .LVU705
	sdiv	r2, r4, r3
	mls	r4, r3, r2, r4
.LVL245:
	.loc 1 610 43 view .LVU706
	adds	r4, r4, #48
	.loc 1 610 28 view .LVU707
	strb	r4, [r10, r6]
	.loc 1 611 9 is_stmt 1 view .LVU708
.LVL246:
	.loc 1 612 9 view .LVU709
	.loc 1 612 17 is_stmt 0 view .LVU710
	mov	r4, r2
.LVL247:
.L206:
	.loc 1 612 17 view .LVU711
	sxth	r6, r5
.LVL248:
	.loc 1 609 11 is_stmt 1 view .LVU712
	adds	r5, r5, #1
	cmp	r4, #0
	bne	.L208
	subs	r2, r6, #1
	add	r2, r2, r10
	add	r3, sp, #8
.LVL249:
.L209:
	.loc 1 616 11 view .LVU713
	cmp	r6, #0
	bgt	.L210
	.loc 1 623 5 view .LVU714
	ldrh	r3, [sp, #556]
.LVL250:
	.loc 1 623 5 is_stmt 0 view .LVU715
	str	r3, [sp, #4]
	ldrh	r3, [sp, #552]
	str	r3, [sp]
	add	r2, sp, #8
.LVL251:
	.loc 1 623 5 view .LVU716
	mov	r3, r9
	mov	r1, r8
	mov	r0, r7
	bl	Paint_DrawString_EN
.LVL252:
	.loc 1 623 5 view .LVU717
	b	.L204
.LVL253:
.L211:
	.loc 1 610 38 view .LVU718
	movs	r3, #10
	b	.L206
.LVL254:
.L210:
	.loc 1 617 9 is_stmt 1 view .LVU719
	.loc 1 617 39 is_stmt 0 view .LVU720
	ldrb	r1, [r2], #-1	@ zero_extendqisi2
	.loc 1 617 28 view .LVU721
	strb	r1, [r3], #1
.LVL255:
	.loc 1 617 28 view .LVU722
	subs	r6, r6, #1
.LVL256:
	.loc 1 618 9 is_stmt 1 view .LVU723
	.loc 1 619 9 view .LVU724
	.loc 1 619 9 is_stmt 0 view .LVU725
	sxth	r6, r6
	.loc 1 619 9 view .LVU726
	b	.L209
.L213:
	.align	2
.L212:
	.word	.LANCHOR0
.LFE14:
	.size	Paint_DrawNum, .-Paint_DrawNum
	.section	.rodata.Paint_DrawTime.str1.1,"aMS",%progbits,1
.LC0:
	.ascii	"0123456789\000"
	.section	.text.Paint_DrawTime,"ax",%progbits
	.align	1
	.global	Paint_DrawTime
	.syntax unified
	.thumb
	.thumb_func
	.fpu softvfp
	.type	Paint_DrawTime, %function
Paint_DrawTime:
.LVL257:
.LFB15:
	.loc 1 637 1 is_stmt 1 view -0
	@ args = 8, pretend = 0, frame = 24
	@ frame_needed = 0, uses_anonymous_args = 0
	.loc 1 638 5 view .LVU728
	.loc 1 637 1 is_stmt 0 view .LVU729
	push	{r4, r5, r6, r7, r8, r9, r10, fp, lr}
.LCFI34:
	.loc 1 638 13 view .LVU730
	ldr	r7, .L215
	.loc 1 637 1 view .LVU731
	sub	sp, sp, #36
.LCFI35:
	.loc 1 637 1 view .LVU732
	mov	r5, r1
	mov	r4, r0
	.loc 1 638 13 view .LVU733
	ldr	r1, [r7, #4]	@ unaligned
.LVL258:
	.loc 1 638 13 view .LVU734
	ldr	r0, [r7]	@ unaligned
.LVL259:
	.loc 1 637 1 view .LVU735
	ldrh	r9, [sp, #72]
	ldrh	r10, [sp, #76]
	mov	fp, r2
	.loc 1 638 13 view .LVU736
	add	r2, sp, #20
.LVL260:
	.loc 1 638 13 view .LVU737
	stmia	r2!, {r0, r1}
	ldrh	r1, [r7, #8]	@ unaligned
	strh	r1, [r2]	@ unaligned
	.loc 1 640 5 is_stmt 1 view .LVU738
	.loc 1 640 11 is_stmt 0 view .LVU739
	ldrh	r7, [r3, #4]
.LVL261:
	.loc 1 643 5 is_stmt 1 view .LVU740
	.loc 1 643 81 is_stmt 0 view .LVU741
	ldrb	r2, [fp, #4]	@ zero_extendqisi2
	.loc 1 643 5 view .LVU742
	strd	r9, r10, [sp]
	.loc 1 643 68 view .LVU743
	add	r1, sp, #32
	.loc 1 643 81 view .LVU744
	mov	r8, #10
	udiv	r2, r2, r8
	.loc 1 643 68 view .LVU745
	add	r2, r2, r1
	.loc 1 643 5 view .LVU746
	mov	r0, r4
	mov	r1, r5
	ldrb	r2, [r2, #-12]	@ zero_extendqisi2
	.loc 1 637 1 view .LVU747
	mov	r6, r3
	.loc 1 643 5 view .LVU748
	bl	Paint_DrawChar
.LVL262:
	.loc 1 644 5 is_stmt 1 view .LVU749
	adds	r0, r7, r4
	uxth	r3, r0
	str	r3, [sp, #8]
	.loc 1 644 81 is_stmt 0 view .LVU750
	ldrb	r3, [fp, #4]	@ zero_extendqisi2
	udiv	r2, r3, r8
	.loc 1 644 5 view .LVU751
	strd	r9, r10, [sp]
	.loc 1 644 81 view .LVU752
	mls	r3, r8, r2, r3
	.loc 1 644 68 view .LVU753
	add	r2, sp, #32
	uxtab	r2, r2, r3
	.loc 1 644 5 view .LVU754
	ldr	r0, [sp, #8]
	ldrb	r2, [r2, #-12]	@ zero_extendqisi2
	mov	r3, r6
	mov	r1, r5
	bl	Paint_DrawChar
.LVL263:
	.loc 1 645 5 is_stmt 1 view .LVU755
	.loc 1 645 33 is_stmt 0 view .LVU756
	ldr	r3, [sp, #8]
	add	r0, r3, r7, lsr #2
	.loc 1 645 5 view .LVU757
	add	r0, r0, r7, lsr #1
	mov	r3, r6
	mov	r1, r5
	strd	r9, r10, [sp]
	movs	r2, #58
	uxth	r0, r0
	bl	Paint_DrawChar
.LVL264:
	.loc 1 646 5 is_stmt 1 view .LVU758
	lsrs	r3, r7, #1
	add	r0, r3, r7, lsl #1
	uxth	r3, r0
	strd	r9, r10, [sp]
	str	r3, [sp, #12]
	.loc 1 646 68 is_stmt 0 view .LVU759
	add	r3, sp, #32
	.loc 1 646 80 view .LVU760
	ldrb	r2, [fp, #5]	@ zero_extendqisi2
	udiv	r2, r2, r8
	.loc 1 646 68 view .LVU761
	add	r2, r2, r3
	.loc 1 646 5 view .LVU762
	uxtah	r0, r4, r0
	mov	r3, r6
	mov	r1, r5
	ldrb	r2, [r2, #-12]	@ zero_extendqisi2
	uxth	r0, r0
	bl	Paint_DrawChar
.LVL265:
	.loc 1 647 5 is_stmt 1 view .LVU763
	ldr	r3, [sp, #12]
	adds	r0, r7, r3
	uxth	r3, r0
	str	r3, [sp, #12]
	.loc 1 647 80 is_stmt 0 view .LVU764
	ldrb	r3, [fp, #5]	@ zero_extendqisi2
	udiv	r2, r3, r8
	.loc 1 647 5 view .LVU765
	strd	r9, r10, [sp]
	.loc 1 647 80 view .LVU766
	mls	r3, r8, r2, r3
	.loc 1 647 68 view .LVU767
	add	r2, sp, #32
	uxtab	r2, r2, r3
	.loc 1 647 5 view .LVU768
	uxtah	r0, r4, r0
	mov	r3, r6
	mov	r1, r5
	ldrb	r2, [r2, #-12]	@ zero_extendqisi2
	uxth	r0, r0
	bl	Paint_DrawChar
.LVL266:
	.loc 1 648 5 is_stmt 1 view .LVU769
	.loc 1 648 36 is_stmt 0 view .LVU770
	ldr	r3, [sp, #12]
	adds	r0, r7, r3
	add	r0, r0, r4
	.loc 1 648 5 view .LVU771
	lsrs	r3, r7, #2
	subs	r0, r0, r3
	mov	r1, r5
	mov	r3, r6
	strd	r9, r10, [sp]
	movs	r2, #58
	uxth	r0, r0
	bl	Paint_DrawChar
.LVL267:
	.loc 1 649 5 is_stmt 1 view .LVU772
	ldr	r3, [sp, #8]
	.loc 1 649 80 is_stmt 0 view .LVU773
	ldrb	r2, [fp, #6]	@ zero_extendqisi2
	udiv	r2, r2, r8
	.loc 1 649 5 view .LVU774
	strd	r9, r10, [sp]
	add	r4, r3, r7, lsl #2
	.loc 1 649 68 view .LVU775
	add	r3, sp, #32
	add	r2, r2, r3
	.loc 1 649 5 view .LVU776
	uxth	r4, r4
	mov	r3, r6
	mov	r1, r5
	mov	r0, r4
	ldrb	r2, [r2, #-12]	@ zero_extendqisi2
	bl	Paint_DrawChar
.LVL268:
	.loc 1 650 5 is_stmt 1 view .LVU777
	.loc 1 650 80 is_stmt 0 view .LVU778
	ldrb	r3, [fp, #6]	@ zero_extendqisi2
	udiv	r2, r3, r8
	.loc 1 650 5 view .LVU779
	strd	r9, r10, [sp, #72]
.LVL269:
	.loc 1 650 80 view .LVU780
	mls	r8, r8, r2, r3
	.loc 1 650 68 view .LVU781
	add	r3, sp, #32
	uxtab	r8, r3, r8
	.loc 1 650 5 view .LVU782
	adds	r0, r4, r7
	ldrb	r2, [r8, #-12]	@ zero_extendqisi2
	mov	r3, r6
	mov	r1, r5
	uxth	r0, r0
	.loc 1 651 1 view .LVU783
	add	sp, sp, #36
.LCFI36:
	@ sp needed
	pop	{r4, r5, r6, r7, r8, r9, r10, fp, lr}
.LCFI37:
.LVL270:
	.loc 1 650 5 view .LVU784
	b	Paint_DrawChar
.LVL271:
.L216:
	.loc 1 650 5 view .LVU785
	.align	2
.L215:
	.word	.LC0
.LFE15:
	.size	Paint_DrawTime, .-Paint_DrawTime
	.section	.text.Paint_DrawBitMap,"ax",%progbits
	.align	1
	.global	Paint_DrawBitMap
	.syntax unified
	.thumb
	.thumb_func
	.fpu softvfp
	.type	Paint_DrawBitMap, %function
Paint_DrawBitMap:
.LVL272:
.LFB16:
	.loc 1 662 1 is_stmt 1 view -0
	@ args = 4, pretend = 0, frame = 0
	@ frame_needed = 0, uses_anonymous_args = 0
	.loc 1 663 5 view .LVU787
	.loc 1 664 5 view .LVU788
	.loc 1 664 33 is_stmt 0 view .LVU789
	cmp	r1, #0
	.loc 1 662 1 view .LVU790
	push	{r4, r5, r6, r7, r8, r10, lr}
.LCFI38:
	.loc 1 664 33 view .LVU791
	it	lt
	addlt	r1, r1, #7
.LVL273:
	.loc 1 669 18 view .LVU792
	ldr	r7, .L223
	.loc 1 664 33 view .LVU793
	asrs	r1, r1, #3
.LVL274:
	.loc 1 665 5 is_stmt 1 view .LVU794
	.loc 1 666 5 view .LVU795
	.loc 1 666 5 is_stmt 0 view .LVU796
	mov	lr, #0
.LVL275:
.L219:
	.loc 1 666 17 is_stmt 1 discriminator 1 view .LVU797
	.loc 1 666 19 is_stmt 0 discriminator 1 view .LVU798
	uxth	r4, lr
	.loc 1 666 5 discriminator 1 view .LVU799
	cmp	r4, r2
	bge	.L217
	.loc 1 669 46 view .LVU800
	ldr	r5, [sp, #28]
	add	ip, r5, r4
	.loc 1 669 62 view .LVU801
	lsl	ip, ip, #4
	movs	r5, #0
	.loc 1 669 96 view .LVU802
	mla	r4, r1, r4, r0
	b	.L222
.LVL276:
.L220:
	.loc 1 669 13 is_stmt 1 discriminator 3 view .LVU803
	.loc 1 669 82 is_stmt 0 discriminator 3 view .LVU804
	ldr	r6, [r7]
	.loc 1 669 96 discriminator 3 view .LVU805
	ldrb	r10, [r4, r8]	@ zero_extendqisi2
	.loc 1 669 82 discriminator 3 view .LVU806
	add	r6, r6, ip
	add	r6, r6, r3
	strb	r10, [r6, r8]
	.loc 1 667 37 is_stmt 1 discriminator 3 view .LVU807
.LVL277:
.L222:
	.loc 1 667 21 discriminator 1 view .LVU808
	uxth	r8, r5
	.loc 1 667 9 is_stmt 0 discriminator 1 view .LVU809
	cmp	r1, r8
	add	r5, r5, #1
.LVL278:
	.loc 1 667 9 discriminator 1 view .LVU810
	bhi	.L220
	.loc 1 666 29 is_stmt 1 discriminator 2 view .LVU811
.LVL279:
	.loc 1 666 29 is_stmt 0 discriminator 2 view .LVU812
	add	lr, lr, #1
.LVL280:
	.loc 1 666 29 discriminator 2 view .LVU813
	b	.L219
.LVL281:
.L217:
	.loc 1 672 1 view .LVU814
	pop	{r4, r5, r6, r7, r8, r10, pc}
.LVL282:
.L224:
	.loc 1 672 1 view .LVU815
	.align	2
.L223:
	.word	.LANCHOR0
.LFE16:
	.size	Paint_DrawBitMap, .-Paint_DrawBitMap
	.global	Paint
	.section	.bss.Paint,"aw",%nobits
	.align	2
	.set	.LANCHOR0,. + 0
	.type	Paint, %object
	.size	Paint, 24
Paint:
	.space	24
	.section	.debug_frame,"",%progbits
.Lframe0:
	.4byte	.LECIE0-.LSCIE0
.LSCIE0:
	.4byte	0xffffffff
	.byte	0x3
	.ascii	"\000"
	.uleb128 0x1
	.sleb128 -4
	.uleb128 0xe
	.byte	0xc
	.uleb128 0xd
	.uleb128 0
	.align	2
.LECIE0:
.LSFDE0:
	.4byte	.LEFDE0-.LASFDE0
.LASFDE0:
	.4byte	.Lframe0
	.4byte	.LFB0
	.4byte	.LFE0-.LFB0
	.byte	0x4
	.4byte	.LCFI0-.LFB0
	.byte	0xe
	.uleb128 0x8
	.byte	0x84
	.uleb128 0x2
	.byte	0x8e
	.uleb128 0x1
	.align	2
.LEFDE0:
.LSFDE2:
	.4byte	.LEFDE2-.LASFDE2
.LASFDE2:
	.4byte	.Lframe0
	.4byte	.LFB1
	.4byte	.LFE1-.LFB1
	.align	2
.LEFDE2:
.LSFDE4:
	.4byte	.LEFDE4-.LASFDE4
.LASFDE4:
	.4byte	.Lframe0
	.4byte	.LFB2
	.4byte	.LFE2-.LFB2
	.align	2
.LEFDE4:
.LSFDE6:
	.4byte	.LEFDE6-.LASFDE6
.LASFDE6:
	.4byte	.Lframe0
	.4byte	.LFB3
	.4byte	.LFE3-.LFB3
	.align	2
.LEFDE6:
.LSFDE8:
	.4byte	.LEFDE8-.LASFDE8
.LASFDE8:
	.4byte	.Lframe0
	.4byte	.LFB4
	.4byte	.LFE4-.LFB4
	.byte	0x4
	.4byte	.LCFI1-.LFB4
	.byte	0xe
	.uleb128 0xc
	.byte	0x84
	.uleb128 0x3
	.byte	0x85
	.uleb128 0x2
	.byte	0x8e
	.uleb128 0x1
	.align	2
.LEFDE8:
.LSFDE10:
	.4byte	.LEFDE10-.LASFDE10
.LASFDE10:
	.4byte	.Lframe0
	.4byte	.LFB5
	.4byte	.LFE5-.LFB5
	.byte	0x4
	.4byte	.LCFI2-.LFB5
	.byte	0xe
	.uleb128 0x14
	.byte	0x84
	.uleb128 0x5
	.byte	0x85
	.uleb128 0x4
	.byte	0x86
	.uleb128 0x3
	.byte	0x87
	.uleb128 0x2
	.byte	0x8e
	.uleb128 0x1
	.align	2
.LEFDE10:
.LSFDE12:
	.4byte	.LEFDE12-.LASFDE12
.LASFDE12:
	.4byte	.Lframe0
	.4byte	.LFB6
	.4byte	.LFE6-.LFB6
	.byte	0x4
	.4byte	.LCFI3-.LFB6
	.byte	0xe
	.uleb128 0x18
	.byte	0x84
	.uleb128 0x6
	.byte	0x85
	.uleb128 0x5
	.byte	0x86
	.uleb128 0x4
	.byte	0x87
	.uleb128 0x3
	.byte	0x88
	.uleb128 0x2
	.byte	0x8e
	.uleb128 0x1
	.align	2
.LEFDE12:
.LSFDE14:
	.4byte	.LEFDE14-.LASFDE14
.LASFDE14:
	.4byte	.Lframe0
	.4byte	.LFB7
	.4byte	.LFE7-.LFB7
	.byte	0x4
	.4byte	.LCFI4-.LFB7
	.byte	0xe
	.uleb128 0x30
	.byte	0x84
	.uleb128 0x9
	.byte	0x85
	.uleb128 0x8
	.byte	0x86
	.uleb128 0x7
	.byte	0x87
	.uleb128 0x6
	.byte	0x88
	.uleb128 0x5
	.byte	0x89
	.uleb128 0x4
	.byte	0x8a
	.uleb128 0x3
	.byte	0x8b
	.uleb128 0x2
	.byte	0x8e
	.uleb128 0x1
	.byte	0x4
	.4byte	.LCFI5-.LCFI4
	.byte	0xa
	.byte	0xe
	.uleb128 0x24
	.byte	0x4
	.4byte	.LCFI6-.LCFI5
	.byte	0xb
	.align	2
.LEFDE14:
.LSFDE16:
	.4byte	.LEFDE16-.LASFDE16
.LASFDE16:
	.4byte	.Lframe0
	.4byte	.LFB8
	.4byte	.LFE8-.LFB8
	.byte	0x4
	.4byte	.LCFI7-.LFB8
	.byte	0xe
	.uleb128 0x24
	.byte	0x84
	.uleb128 0x9
	.byte	0x85
	.uleb128 0x8
	.byte	0x86
	.uleb128 0x7
	.byte	0x87
	.uleb128 0x6
	.byte	0x88
	.uleb128 0x5
	.byte	0x89
	.uleb128 0x4
	.byte	0x8a
	.uleb128 0x3
	.byte	0x8b
	.uleb128 0x2
	.byte	0x8e
	.uleb128 0x1
	.byte	0x4
	.4byte	.LCFI8-.LCFI7
	.byte	0xe
	.uleb128 0x50
	.byte	0x4
	.4byte	.LCFI9-.LCFI8
	.byte	0xe
	.uleb128 0x24
	.align	2
.LEFDE16:
.LSFDE18:
	.4byte	.LEFDE18-.LASFDE18
.LASFDE18:
	.4byte	.Lframe0
	.4byte	.LFB9
	.4byte	.LFE9-.LFB9
	.byte	0x4
	.4byte	.LCFI10-.LFB9
	.byte	0xe
	.uleb128 0x30
	.byte	0x84
	.uleb128 0x8
	.byte	0x85
	.uleb128 0x7
	.byte	0x86
	.uleb128 0x6
	.byte	0x87
	.uleb128 0x5
	.byte	0x88
	.uleb128 0x4
	.byte	0x89
	.uleb128 0x3
	.byte	0x8a
	.uleb128 0x2
	.byte	0x8e
	.uleb128 0x1
	.byte	0x4
	.4byte	.LCFI11-.LCFI10
	.byte	0xa
	.byte	0xe
	.uleb128 0x20
	.byte	0x4
	.4byte	.LCFI12-.LCFI11
	.byte	0xb
	.byte	0x4
	.4byte	.LCFI13-.LCFI12
	.byte	0xe
	.uleb128 0x20
	.byte	0x4
	.4byte	.LCFI14-.LCFI13
	.byte	0xce
	.byte	0xca
	.byte	0xc9
	.byte	0xc8
	.byte	0xc7
	.byte	0xc6
	.byte	0xc5
	.byte	0xc4
	.byte	0xe
	.uleb128 0
	.align	2
.LEFDE18:
.LSFDE20:
	.4byte	.LEFDE20-.LASFDE20
.LASFDE20:
	.4byte	.Lframe0
	.4byte	.LFB10
	.4byte	.LFE10-.LFB10
	.byte	0x4
	.4byte	.LCFI15-.LFB10
	.byte	0xe
	.uleb128 0x24
	.byte	0x84
	.uleb128 0x9
	.byte	0x85
	.uleb128 0x8
	.byte	0x86
	.uleb128 0x7
	.byte	0x87
	.uleb128 0x6
	.byte	0x88
	.uleb128 0x5
	.byte	0x89
	.uleb128 0x4
	.byte	0x8a
	.uleb128 0x3
	.byte	0x8b
	.uleb128 0x2
	.byte	0x8e
	.uleb128 0x1
	.byte	0x4
	.4byte	.LCFI16-.LCFI15
	.byte	0xe
	.uleb128 0x50
	.byte	0x4
	.4byte	.LCFI17-.LCFI16
	.byte	0xa
	.byte	0xe
	.uleb128 0x24
	.byte	0x4
	.4byte	.LCFI18-.LCFI17
	.byte	0xb
	.align	2
.LEFDE20:
.LSFDE22:
	.4byte	.LEFDE22-.LASFDE22
.LASFDE22:
	.4byte	.Lframe0
	.4byte	.LFB11
	.4byte	.LFE11-.LFB11
	.byte	0x4
	.4byte	.LCFI19-.LFB11
	.byte	0xe
	.uleb128 0x30
	.byte	0x84
	.uleb128 0x9
	.byte	0x85
	.uleb128 0x8
	.byte	0x86
	.uleb128 0x7
	.byte	0x87
	.uleb128 0x6
	.byte	0x88
	.uleb128 0x5
	.byte	0x89
	.uleb128 0x4
	.byte	0x8a
	.uleb128 0x3
	.byte	0x8b
	.uleb128 0x2
	.byte	0x8e
	.uleb128 0x1
	.byte	0x4
	.4byte	.LCFI20-.LCFI19
	.byte	0xa
	.byte	0xe
	.uleb128 0x24
	.byte	0x4
	.4byte	.LCFI21-.LCFI20
	.byte	0xb
	.align	2
.LEFDE22:
.LSFDE24:
	.4byte	.LEFDE24-.LASFDE24
.LASFDE24:
	.4byte	.Lframe0
	.4byte	.LFB12
	.4byte	.LFE12-.LFB12
	.byte	0x4
	.4byte	.LCFI22-.LFB12
	.byte	0xe
	.uleb128 0x24
	.byte	0x84
	.uleb128 0x9
	.byte	0x85
	.uleb128 0x8
	.byte	0x86
	.uleb128 0x7
	.byte	0x87
	.uleb128 0x6
	.byte	0x88
	.uleb128 0x5
	.byte	0x89
	.uleb128 0x4
	.byte	0x8a
	.uleb128 0x3
	.byte	0x8b
	.uleb128 0x2
	.byte	0x8e
	.uleb128 0x1
	.byte	0x4
	.4byte	.LCFI23-.LCFI22
	.byte	0xe
	.uleb128 0x38
	.byte	0x4
	.4byte	.LCFI24-.LCFI23
	.byte	0xa
	.byte	0xe
	.uleb128 0x24
	.byte	0x4
	.4byte	.LCFI25-.LCFI24
	.byte	0xb
	.align	2
.LEFDE24:
.LSFDE26:
	.4byte	.LEFDE26-.LASFDE26
.LASFDE26:
	.4byte	.Lframe0
	.4byte	.LFB13
	.4byte	.LFE13-.LFB13
	.byte	0x4
	.4byte	.LCFI26-.LFB13
	.byte	0xe
	.uleb128 0x24
	.byte	0x84
	.uleb128 0x9
	.byte	0x85
	.uleb128 0x8
	.byte	0x86
	.uleb128 0x7
	.byte	0x87
	.uleb128 0x6
	.byte	0x88
	.uleb128 0x5
	.byte	0x89
	.uleb128 0x4
	.byte	0x8a
	.uleb128 0x3
	.byte	0x8b
	.uleb128 0x2
	.byte	0x8e
	.uleb128 0x1
	.byte	0x4
	.4byte	.LCFI27-.LCFI26
	.byte	0xe
	.uleb128 0x38
	.byte	0x4
	.4byte	.LCFI28-.LCFI27
	.byte	0xa
	.byte	0xe
	.uleb128 0x24
	.byte	0x4
	.4byte	.LCFI29-.LCFI28
	.byte	0xb
	.align	2
.LEFDE26:
.LSFDE28:
	.4byte	.LEFDE28-.LASFDE28
.LASFDE28:
	.4byte	.Lframe0
	.4byte	.LFB14
	.4byte	.LFE14-.LFB14
	.byte	0x4
	.4byte	.LCFI30-.LFB14
	.byte	0xe
	.uleb128 0x20
	.byte	0x84
	.uleb128 0x8
	.byte	0x85
	.uleb128 0x7
	.byte	0x86
	.uleb128 0x6
	.byte	0x87
	.uleb128 0x5
	.byte	0x88
	.uleb128 0x4
	.byte	0x89
	.uleb128 0x3
	.byte	0x8a
	.uleb128 0x2
	.byte	0x8e
	.uleb128 0x1
	.byte	0x4
	.4byte	.LCFI31-.LCFI30
	.byte	0xe
	.uleb128 0x228
	.byte	0x4
	.4byte	.LCFI32-.LCFI31
	.byte	0xa
	.byte	0xe
	.uleb128 0x20
	.byte	0x4
	.4byte	.LCFI33-.LCFI32
	.byte	0xb
	.align	2
.LEFDE28:
.LSFDE30:
	.4byte	.LEFDE30-.LASFDE30
.LASFDE30:
	.4byte	.Lframe0
	.4byte	.LFB15
	.4byte	.LFE15-.LFB15
	.byte	0x4
	.4byte	.LCFI34-.LFB15
	.byte	0xe
	.uleb128 0x24
	.byte	0x84
	.uleb128 0x9
	.byte	0x85
	.uleb128 0x8
	.byte	0x86
	.uleb128 0x7
	.byte	0x87
	.uleb128 0x6
	.byte	0x88
	.uleb128 0x5
	.byte	0x89
	.uleb128 0x4
	.byte	0x8a
	.uleb128 0x3
	.byte	0x8b
	.uleb128 0x2
	.byte	0x8e
	.uleb128 0x1
	.byte	0x4
	.4byte	.LCFI35-.LCFI34
	.byte	0xe
	.uleb128 0x48
	.byte	0x4
	.4byte	.LCFI36-.LCFI35
	.byte	0xe
	.uleb128 0x24
	.byte	0x4
	.4byte	.LCFI37-.LCFI36
	.byte	0xce
	.byte	0xcb
	.byte	0xca
	.byte	0xc9
	.byte	0xc8
	.byte	0xc7
	.byte	0xc6
	.byte	0xc5
	.byte	0xc4
	.byte	0xe
	.uleb128 0
	.align	2
.LEFDE30:
.LSFDE32:
	.4byte	.LEFDE32-.LASFDE32
.LASFDE32:
	.4byte	.Lframe0
	.4byte	.LFB16
	.4byte	.LFE16-.LFB16
	.byte	0x4
	.4byte	.LCFI38-.LFB16
	.byte	0xe
	.uleb128 0x1c
	.byte	0x84
	.uleb128 0x7
	.byte	0x85
	.uleb128 0x6
	.byte	0x86
	.uleb128 0x5
	.byte	0x87
	.uleb128 0x4
	.byte	0x88
	.uleb128 0x3
	.byte	0x8a
	.uleb128 0x2
	.byte	0x8e
	.uleb128 0x1
	.align	2
.LEFDE32:
	.text
.Letext0:
	.file 2 "C:/Program Files/SEGGER/SEGGER Embedded Studio for ARM 5.50d/include/stdint.h"
	.file 3 "c:\\users\\berka\\desktop\\borda\\proje\\devicedownload\\nrf5sdk1702d674dde\\nrf5_sdk_17.0.2_d674dde\\examples\\ble_peripheral\\electronic_shelf_label\\libraries\\font\\fonts.h"
	.file 4 "C:\\Users\\berka\\Desktop\\BORDA\\Proje\\DeviceDownload\\nRF5SDK1702d674dde\\nRF5_SDK_17.0.2_d674dde\\examples\\ble_peripheral\\electronic_shelf_label\\Libraries\\gui\\GUI_Paint.h"
	.file 5 "<built-in>"